(dp0
VGlycero-3-phospho-1-inositol transport via diffusion (extracellular to periplasm)
p1
F0.9823718127269789
sVL-Glutamine exchange
p2
F0.9823718127276349
sVAcetyl-CoA C-acyltransferase (tetradecanoyl-CoA) (r)
p3
F0.9809576641130416
sVThymidine exchange
p4
F0.9823718127269764
sVFatty-acid-CoA thioesterase (hexadecenoate)
p5
F0.9816062539943566
sVGalactosyltransferase I (LPS core synthesis)
p6
F0.9823718127269782
sVPhosphoserine phosphatase (L-serine)
p7
F0.9606659976734239
sVOxepin-CoA hydrolase/ 3-oxo-5,6-dehydrosuberyl-CoA semialdehyde dehydrogenase (NADP+)
p8
F0.9823718127269748
sVUDP-N-acetylmuramate:L-alanyl-gamma-D-glutamyl-meso-diaminopimelate-D-alanine ligase
p9
F0.9823718127269766
sVMaltodextrin glucosidase (maltohexaose)
p10
F0.9823718127269826
sVPhospho-N-acetylmuramoyl-pentapeptide-transferase (meso-2,6-diaminopimelate)
p11
F0.0
sVGlucuronate isomerase (D-glucuronate)
p12
F0.9823718127254115
sVN-Acetyl-D-glucosamine exchange
p13
F0.9823718127269738
sVNitrate reductase (Ubiquinol-8)
p14
F0.9823718127269777
sV2-acyl-glycerophospho-ethanolamine acyltransferase (n-C12:0)
p15
F0.9823718127269803
sVGlycerol transport via channel (periplasm)
p16
F0.9823718127269792
sV2-hydroxy-6-ketonona-2,4-dienedioic acid hydrolase
p17
F0.9823718127269758
sVD-methionine transport via ABC system (periplasm)
p18
F0.9823718127269799
sV2-Methyl-4-amino-5-hydroxymethylpyrimidine diphosphatase
p19
F0.9823718127269803
sVOctaprenyl-hydroxybenzoate decarboxylase
p20
F0.0
sV2-Acyl-sn-glycero-3-phosphoglycerol (n-C14:0) transporter via facilitated diffusion (periplasm)
p21
F0.9823718127269803
sVGuanine transport via diffusion (periplasm)
p22
F0.9823718127254115
sVD-Galactarate exchange
p23
F0.9823718127452477
sVL-alanine-D-glutamate-meso-2,6-diaminoheptanedioate-D-alanine exchange
p24
F0.9823718127269738
sVFerroxamine transport via ABC system (periplasm)
p25
F0.9823718127269746
sVSodium exchange
p26
F0.982371812726975
sVPutrescine exchange
p27
F0.9823718127269758
sVLipid A:hexadecanoate transferase (n-C16:0) (extracellular membrane)
p28
F0.9823718127269806
sVXMP transport via diffusion (extracellular to periplasm)
p29
F0.9823718127269766
sVPhosphatidylserine decarboxylase (n-C16:0)
p30
F0.0
sV3-oxoacyl-[acyl-carrier-protein] synthase (n-C16:1)
p31
F0.9823718127269759
sVTetradecanoate transport via facilitated irreversible diffusion (extracellular to periplasm)
p32
F0.9823718127269826
sVD-Fructose exchange
p33
F0.9823718127452477
sV4-(2-Aminoethyl)-1,2-benzenediol:oxygen oxidoreductase(deaminating)(flavin-containing)
p34
F0.9823718127269759
sVTetracycline transport via diffusion (extracellular to periplasm)
p35
F0.9823718127269826
sVPhosphatidylethanolamine transport via ABC system (n-C18:1, periplasm)
p36
F0.9823718127269767
sV2-Acyl-sn-glycero-3-phosphatidate (n-C12:0) transporter via facilitated diffusion (periplasm)
p37
F0.9823718127269803
sVGlycine betaine transport via ABC system (periplasm)
p38
F0.9823718127269792
sVCobalt (Co+2) ABC transporter (periplasm)
p39
F0.9823718127269832
sVSpermidine transport via diffusion (extracellular to periplasm)
p40
F0.9823718127269723
sVUDP-glucuronate C-4'' decarboxylase
p41
F0.9823718127269807
sVAcyl-CoA dehydrogenase (octanoyl-CoA)
p42
F0.9720365831108327
sV3-isopropylmalate dehydratase
p43
F0.0
sVBeta-alanine transport in via proton symport (periplasm)
p44
F0.9823718127269793
sVLysophospholipase L2 (acyltransferase, 2-acyl-glycerophosphoglycerol, n-C12:0)
p45
F0.9823718127269809
sVHomocysteine S-methyltransferase
p46
F0.9823718127269775
sVMaltotriose transport via diffusion (extracellular to periplasm) irreversible
p47
F0.9823718127269785
sVMurein D,D-carboxypeptidase (murein5px4p) (periplasm)
p48
F0.98237181272698
sVLysophospholipase L2 (2-acylglycerophosphoglycerol, n-C16:0)
p49
F0.9823718127269809
sVFormate dehydrogenase (quinone-8) (periplasm)
p50
F0.9823718127269746
sVEnoyl-[acyl-carrier-protein] reductase (NADH) (n-C4:0)
p51
F0.9823718127269858
sVCDP-diacylglycerol synthetase (n-C16:0)
p52
F0.0
sVAcetylornithine transaminase
p53
F-6.12319847687166e-17
sVD-fructose transport via diffusion (extracellular to periplasm)
p54
F0.9823718127269746
sVUricase
p55
F0.982371812726977
sVL-rhamnose transport via proton symport (periplasm)
p56
F0.9823718127269824
sVTriose-phosphate isomerase
p57
F0.9470535203107976
sVAdenine exchange
p58
F0.9823718127269738
sVGuanosine 3'-diphosphate 5'-triphosphate 3'-diphosphatase
p59
F0.9823718127268865
sVGDP diphosphokinase
p60
F0.9823718127268865
sVSodium proton antiporter (H:NA is 2) (periplasm)
p61
F0.9823718127269085
sV2-Oxobutanoate formate lyase
p62
F0.9823718127269847
sVDsbD reductase
p63
F0.9823718127269767
sVCore oligosaccharide lipid A transport via ABC system (periplasm to extracellular)
p64
F0.9823718127269837
sVCyclopropane fatty acid synthase (Phosphatidylglycerol, n-C18:0)
p65
F0.9823718127269798
sV3-(3-hydroxy-phenyl)propionate exchange
p66
F0.9823718127269738
sVL-alanine transport in via sodium symport (periplasm)
p67
F0.9823718127269725
sV4-aminobutyrate transport via diffusion (extracellular to periplasm)
p68
F0.9823718127269764
sVD-serine transport in via proton symport (periplasm)
p69
F0.9823718127269767
sVPhospho-L-serine transport via diffusion (extracellular to periplasm)
p70
F0.9823718127269768
sVMethylmalonyl-CoA mutase
p71
F0.9823718127269826
sVCholine dehydrogenase
p72
F0.9823718127269798
sVSUF [4Fe-4S] Reduction
p73
F0.9823718127269767
sVISC [4Fe-4S] Reduction
p74
F0.9823696939720034
sVCardiolipin hydrolase (periplasm, n-C18:0)
p75
F0.982371812726979
sVCob(1)alamin transport via ABC system (periplasm)
p76
F0.9823718127269797
sVGlycolate transport via proton symport, reversible (periplasm)
p77
F0.9823718127269792
sV3-Oxo-glutaryl-[ACP] methyl ester dehydratase
p78
F0.0
sVL-indonate 5-dehydrogenase (NADP)
p79
F0.9823718127269806
sVTyramine transport via diffusion (extracellular to periplasm)
p80
F0.9823718127269826
sV2-dehydropantoate 2-reductase
p81
F0.0
sVPantothenate sodium symporter (periplasm)
p82
F0.982371812726978
sVDTDP-4-amino-4,6-dideoxy-D-glucose acetyltransferase
p83
F0.9823718127269722
sVL-Methionine S-oxide exchange
p84
F0.9823718127269813
sVUridine kinase (GTP:Uridine)
p85
F0.982371812726977
sVThreonine aldolase
p86
F0.982371812726977
sVAcetyl-CoA C-acyltransferase (dodecanoyl-CoA) (r)
p87
F0.9787103646746796
sVRelease of Fe(III) from ferric 2,3-dihydroxybenzoylserine
p88
F0.9823718127269746
sVAllantoin exchange
p89
F0.9823718127269738
sVFerrichrome minus Fe(III) exchange
p90
F0.9823718127452477
sVUracil phosphoribosyltransferase
p91
F0.982371812726977
sVRibonucleoside-diphosphate reductase (CDP) (glutaredoxin)
p92
F0.9823718127269824
sVD-galactose transport in via proton symport (periplasm)
p93
F0.9823718127269782
sVIMP transport via diffusion (extracellular to periplasm)
p94
F0.9823718127269814
sVL-Cysteinylglycine (Cys-Gly) transport via ABC system (periplasm)
p95
F0.9823718127269798
sVGlutathionylspermidine synthetase
p96
F0.9823718127269803
sVGlycerol-3-phosphate acyltransferase (C14:0)
p97
F0.9823718127269713
sVPhosphoribosylanthranilate isomerase (irreversible)
p98
F-5.681617637366511e-31
sVAlanine racemase
p99
F-2.2327723980520213e-30
sVLysophospholipase L1 (2-acylglycerophosphoglycerol, n-C14:0) (periplasm)
p100
F0.9823718127269809
sVSpermidine transport out via proton antiport (periplasm)
p101
F0.9823718127269723
sVHexanoate (n-C6:0) exchange
p102
F0.9823718127269754
sVTetrapeptide L,D-carboxypeptidase
p103
F0.9823718127269759
sVD-Serine exchange
p104
F0.9823718127269758
sVGlutathione peridoxase
p105
F0.9823718127269803
sVMurein L,D-carboxypeptidase (murein5px4p) (periplasm)
p106
F0.9823718127269826
sVD-Mannose 6-phosphate exchange
p107
F0.9823718127269807
sVPhospho-L-serine phosphatase (periplasmic)
p108
F0.9823718127269768
sVFormate Dehydrogenase (menaquinone-8) (periplasm)
p109
F0.9823718127269746
sV2-Acyl-sn-glycero-3-phosphoglycerol (n-C18:0) transporter via facilitated diffusion (periplasm)
p110
F0.9823718127269803
sVXanthine phosphoribosyltransferase
p111
F0.9823718127269766
sV2,3-dihydroxyphenylpropionate dehydrogenase
p112
F0.9823718127269805
sVPotassium transport via diffusion (extracellular to periplasm)
p113
F1.7025923134043116e-15
sVGuanine transport via diffusion (extracellular to periplasm)
p114
F0.9823718127254115
sVMagnesium (Mg+2) ABC transporter (ubtake, periplasm)
p115
F0.9823718127269826
sVLipid A transport via ABC system (periplasm to extracellular)
p116
F0.9823718127269806
sVHexokinase (D-fructose:ATP)
p117
F0.9823718127269775
sVDeoxyadenosine transport via diffusion (extracellular to periplasm)
p118
F0.9823718127269802
sVAnthranilate synthase
p119
F-8.544984840235468e-16
sVAdenosine hydrolase
p120
F0.9823718127269797
sVS-methyl-L-methionine transport via diffusion (extracellular to periplasm)
p121
F0.9823718127269826
sVFerrochelatase
p122
F0.0
sV2-Acyl-sn-glycero-3-phosphoethanolamine (n-C18:1) transporter via facilitated diffusion (periplasm)
p123
F0.9823718127269803
sVL-alanine-D-glutamate-meso-2,6-diaminoheptanedioate exchange
p124
F0.9823718127269738
sVL-alanyl-D-glutamate transport in via proton symport (periplasm)
p125
F0.9823718127269813
sV3-keto-L-gulonate kinase
p126
F0.9823718127269803
sVHistidinol-phosphate transaminase
p127
F0.0
sVCytidine kinase (GTP)
p128
F0.9823718127269802
sVButanesulfonate transport via ABC system (periplasm)
p129
F0.9823718127269773
sVL-glutamate transport via proton symport, reversible (periplasm)
p130
F0.9823718127269792
sV3-hydroxyacyl-CoA dehydratase (3-hydroxytetradecanoyl-CoA)
p131
F0.9787103646746755
sVCDP-Diacylglycerol pyrophostatase (n-C14:0)
p132
F0.9823718127269799
sV1,2 diacylglycerol transport via flipping (periplasm to cytoplasm, n-C12:0)
p133
F0.9823718127269803
sVCO2 transporter via diffusion (periplasm)
p134
F0.9189718362566891
sVGuanine phosphoribosyltransferase
p135
F0.9823718127254115
sVPhospholipase A2 (phosphatidylglycerol, n-C18:1) (periplasm)
p136
F0.9823718127269816
sVLacaldehyde reductase (S-propane-1,2-diol forming)
p137
F0.9823718127269813
sVUDP-N-acetylglucosamine diphosphorylase
p138
F-1.0878285984656501e-30
sVFructose-bisphosphatase
p139
F0.9823718127269874
sVSulfate transport via diffusion (extracellular to periplasm)
p140
F2.711982753361817e-15
sV(R)-Propane-1,2-diol exchange
p141
F0.9823718127269738
sVPyridoxamine kinase
p142
F0.9823718127269796
sVD-glucosamine transport via PEP:Pyr PTS (periplasm)
p143
F0.9823718127269782
sVTrehalose-phosphatase
p144
F0.9823718127269826
sVTyrosine transaminase
p145
F0.0
sVSpermidine acetyltransferase (N8)
p146
F0.9823718127269723
sVGlycerol exchange
p147
F0.9823718127276349
sVL-leucine transport via diffusion (extracellular to periplasm)
p148
F0.9823718127269806
sVMethionyl-tRNA formyltransferase
p149
F0.9823718127269746
sVMalate oxidase
p150
F0.9823703835838797
sVCoprogen unloaded (no Fe(III)) exchange
p151
F0.9823718127269776
sVTrimethylamine N-oxide reductase (demethylmenaquinol 8)
p152
F0.9823718127269779
sVMn2+ exchange
p153
F0.0
sVFatty-acid-CoA thioesterase (octanoate)
p154
F0.9823718127269873
sVCDP-Diacylglycerol pyrophostatase (n-C12:0)
p155
F0.9823718127269799
sVEnterochelin Esterase (Fe containing)
p156
F0.982371812726979
sVCold lipid A transport via ABC system (periplasm to extracellular)
p157
F0.982371812726979
sVHydrogenase (menaquinone8: 2 protons) (periplasm)
p158
F0.982371812727309
sVMethanesulfonate transport via ABC system (periplasm)
p159
F0.9823718127249221
sVGTP diphosphokinase
p160
F0.9823718127254115
sVIsethionate transport via diffusion (extracellular to periplasm)
p161
F0.9823718127269839
sVZinc transport in via permease (no H+)
p162
F0.9823704233114076
sV3-deoxy -D-manno-octulosonic -acid 8-phosphate synthase
p163
F-6.246738942511153e-31
sVN-acetyl-D-mannosamine kinase
p164
F0.9823718127269725
sV3-oxoacyl-[acyl-carrier-protein] reductase (n-C18:1)
p165
F0.982371812726975
sVArbutin exchange
p166
F0.9823718127269738
sVPhosphofructokinase (s7p)
p167
F0.9823718127269889
sVL-alanine transaminase
p168
F0.9823718127269725
sVRifampin transport via TolC system
p169
F0.9823718127269822
sVOrotate transport via diffusion (extracellular to periplasm)
p170
F0.982371812726982
sVQuinol monooxygenase (Ubiquinol-8)
p171
F0.9823718127269754
sVL-galactonate transport via diffusion (extracellular to periplasm)
p172
F0.9823718127269782
sVL-tryptophan reversible transport via proton symport (periplasm)
p173
F0.9823718127269826
sVMalate synthase
p174
F0.982369768331679
sVGlcNAc-anhMurNAc transport in via proton symport (periplasm)
p175
F0.9823718127269785
sV1,4-alpha-D-glucan exchange
p176
F0.9823718127269738
sVTyrosine lyase
p177
F3.3097178154342944e-16
sVHeptosyltransferase I (LPS core synthesis)
p178
F0.9823718127269775
sVUDP-N-acetyl-D-mannosamine oxidoreductase
p179
F0.9823718127269799
sV3-phenylpropionate transport via proton symport, reversible (periplasm)
p180
F0.9823718127269765
sVNicotinic acid transport via diffusion (extracellular to periplasm)
p181
F0.9823718127249216
sVMinocycline transport via diffusion (extracellular to periplasm)
p182
F0.9823718127269826
sVXanthine exchange
p183
F0.9823718127269764
sVDimethyl sulfoxide reductase (Menaquinol 8)
p184
F0.9823718127269773
sVD-alanine transport in via proton symport (periplasm)
p185
F0.9817353444718274
sVFMNH2-dependent monooxygenase (methanesulfonate)
p186
F0.9823718127269746
sVNADH dehydrogenase (ubiquinone-8 )
p187
F0.9823718127269767
sV2-dehydro-3-deoxy-phosphogluconate aldolase
p188
F0.9823718127269719
sVPhosphoribosylaminoimidazole synthase
p189
F3.658245927058202e-15
sVAmylomaltase (maltopentaose)
p190
F0.9823718127269725
sVHydroxymethylbilane synthase
p191
F-3.2886215466772348e-18
sVCyclic pyranopterin monophosphate synthase
p192
F0.0
sVTransketolase
p193
F0.9783661055250914
sVTetrapeptide (LalaDgluMdapDala) transport via ABC system (periplasm)
p194
F0.9823718127269759
sVHepta-acylated KDO(2)-lipid (A) exchange
p195
F0.9823718127269754
sVDecanoate (n-C10:0) exchange
p196
F0.9823718127452477
sV4-(cytidine 5'-diphospho)-2-C-methyl-D-erythritol kinase
p197
F0.0
sVIndole exchange
p198
F0.9823718127269754
sVDihydrofolate synthase
p199
F-6.001373677718299e-16
sVChloride transport out via proton antiport (2:1) (periplasm)
p200
F0.0
sV3-hydroxyacyl-[acyl-carrier-protein] dehydratase (n-C14:0)
p201
F0.9823718127269803
sVRibokinase
p202
F0.9823718127269822
sVDihydromonapterin reductase
p203
F0.9823718127269789
sVSeryl-tRNA synthetase
p204
F0.9823718127269755
sVPhosphatidate phosphatase (n-C18:1)
p205
F0.9823718127269696
sVLysophospholipase L2 (2-acylglycerophosphoethanolamine, n-C14:0)
p206
F0.9823718127269809
sVDTMP transport via diffusion (extracellular to periplasm)
p207
F0.9823718127269854
sVHexadecanoate transport via facilitated irreversible diffusion (extracellular to periplasm)
p208
F0.9823718127269775
sV3-phenylpropionate transport via diffusion (extracellular to periplasm)
p209
F0.9823718127269765
sVAllantoin transport in via proton symport (periplasm)
p210
F0.9823718127269725
sVFAD reductase
p211
F0.9823718127269873
sV23cAMP transport via diffusion (extracellular to periplasm)
p212
F0.9823718127269803
sVLipoyl(octanoyl) transferase
p213
F0.9823718127269806
sVSelenate exchange
p214
F0.9823718127269758
sVCore oligosaccharide lipid A transport via ABC system (periplasm)
p215
F0.9823718127269837
sV2-Acyl-sn-glycero-3-phosphoethanolamine (n-C16:1) transporter via facilitated diffusion (periplasm)
p216
F0.9823718127269803
sV(S)-Propane-1,2-diol exchange
p217
F0.9823718127269738
sVUroporphyrinogen methyltransferase
p218
F0.0
sVPhospholipase A1 (phosphatidate, n-C18:0) (periplasm)
p219
F0.9823718127269816
sVIndole transport via diffusion (extracellular to periplasm)
p220
F0.9823718127269814
sVLysophospholipase L2 (2-acylglycerophosphoethanolamine, n-C12:0)
p221
F0.9823718127269809
sVNucleoside triphosphate pyrophosphorylase (dttp)
p222
F0.9823718127269777
sVSuccinylornithine transaminase
p223
F0.9823718127269723
sVAdenosine deaminase
p224
F0.9823718127269793
sV5'-deoxyadenosine nuclosidase
p225
F6.8410122272935775e-15
sVLysophospholipase L2 (2-acylglycerophosphoglycerol, n-C16:1)
p226
F0.9823718127269809
sV4-aminobutyrate transaminase
p227
F0.9823718127269764
sVD-glucarate transport via diffusion (extracellular to periplasm)
p228
F0.9823718127269806
sVAldehyde dehydrogenase (phenylacetaldehyde, NAD)
p229
F0.9823718127269725
sVAerobactin exchange
p230
F0.9823718127269738
sVD-ribose transport via ABC system (periplasm)
p231
F0.9823718127269824
sVHypoxanthine transport via diffusion (extracellular to periplasm)
p232
F0.982371812727309
sVMalate dehydrogenase
p233
F0.9663946546521
sVGlycine transport in via proton symport (periplasm)
p234
F0.9823718127269792
sVPyridoxal exchange
p235
F0.9823718127269758
sVEthanol transport via diffusion (extracellular to periplasm)
p236
F0.9823718127269875
sVProtoheme exchange
p237
F0.9823718127269746
sVGlycerol-3-phosphate transport via diffusion (extracellular to periplasm)
p238
F0.9823718127269792
sV3-hydroxyacyl-[acyl-carrier-protein] dehydratase (n-C18:0)
p239
F0.9823718127269803
sVCobalt (Co+2) transport out via proton antiport (periplasm)
p240
F0.9823718127269832
sVGTP cyclohydrolase II (25drapp)
p241
F0.0
sVArbutin transport via diffusion (extracellular to periplasm)
p242
F0.982371812726983
sVSUF [2Fe-2S] regeneration
p243
F0.9823718127269767
sVKetol-acid reductoisomerase (2-Acetolactate)
p244
F1.1263456295569515e-34
sVAllose transport via diffusion (extracellular to periplasm)
p245
F0.9823718127269725
sVTungsten bispterin cofactor synthase
p246
F0.9823718127269773
sVNucleoside-diphosphate kinase (ATP:dTDP)
p247
F1.1959827351958846e-18
sVL-malate transport out via proton antiport (periplasm)
p248
F0.9823718127269785
sVGAR transformylase-T
p249
F0.9823718127271976
sVPhosphatidylethanolamine transport via ABC system (n-C16:0, periplasm)
p250
F0.0
sVH2O transport via diffusion (periplasm)
p251
F0.496865390874445
sV3'-nucleotidase (GMP) (periplasm)
p252
F0.9823718127269803
sVL-alanine transport via ABC system (periplasm)
p253
F0.9823718127269725
sV2-octaprenyl-6-hydroxyphenol methylase
p254
F0.9823718127269799
sVCobinamide exchange
p255
F0.9823718127269743
sVL-Glutamate exchange
p256
F0.9823718127276349
sV1,5-Diaminopentane exchange
p257
F0.9823718127269738
sVFerroxamine (minus Fe3) secretion (to periplasm)
p258
F0.9823718127269746
sVHypothetical enyme
p259
F0.982371812727309
sVAdenine phosphoribosyltransferase
p260
F0.9823718127269793
sVN-acetyl-D-mannosamine transport via PTS  (periplasm)
p261
F0.9823718127269774
sVCalcium (Ca+2) transport out via proton antiport (periplasm)
p262
F0.9823718127269773
sVPhospholipase A1 (phosphatidate, n-C12:0) (periplasm)
p263
F0.9823718127269816
sV1-tetradec-7-enoyl-sn-glycerol 3-phosphate O-acyltransferase (n-C14:1)
p264
F0.9823718127269785
sVChitobiose transport via PEP:Pyr PTS (periplasm)
p265
F0.982371812726979
sVK+ exchange
p266
F0.0
sV2-O-alpha-mannosyl-D-glycerate transport via diffusion (extracellular to periplasm)
p267
F0.9823718127269785
sVThiocyanate exchange
p268
F0.9823718127269764
sVN-Acetyl-D-galactosamine exchange
p269
F0.9823718127269738
sVFe(III)dicitrate exchange
p270
F0.9823718127452477
sVPhospholipase A2 (phosphatidylglycerol, n-C16:1) (periplasm)
p271
F0.9823718127269816
sVL-proline transport via ABC system (periplasm)
p272
F0.9823718127269673
sVPhosphatidylethanolamine transport via ABC system (n-C18:0, periplasm)
p273
F0.9823718127269767
sVTyramine:oxygen oxidoreductase(deaminating)(flavin-containing) (periplasm)
p274
F0.9823718127269826
sVL-methionine R-oxide diffusion (extracellular)
p275
F0.982371812726979
sVEnoyl-[acyl-carrier-protein] reductase (NADH) (n-C8:0)
p276
F0.9823718127269858
sV3-hydroxyacyl-[acyl-carrier-protein] dehydratase (n-C12:0)
p277
F0.9823718127269803
sVN-Acetyl-D-glucosamine 1-phosphate exchange
p278
F0.9823718127269738
sVCrotonobetaine transport via ABC system (periplasm)
p279
F0.9823718127269765
sVDTDP-N-4-acetamido-4,6-dideoxy-D-galactose transferase
p280
F0.9823718127269764
sVGlucose-1-phosphate thymidylyltransferase
p281
F0.9823718127269759
sVLysophospholipase L1 (2-acylglycerophosphotidate, n-C12:0) (periplasm)
p282
F0.9823718127269809
sV1-Deoxy-D-xylulose kinase
p283
F0.9823718127269858
sVGlutaminase
p284
F0.9823718127269785
sVErythrose 4-phosphate dehydrogenase
p285
F0.0
sVCarbamate deaminase
p286
F0.9823718127269797
sVMaltohexaose transport via ABC system (periplasm)
p287
F0.9823718127269785
sVPyruvate oxidase
p288
F0.982371812726978
sVOxalyl-CoA decarboxylase
p289
F0.9823718127269748
sVD-Cysteine exchange
p290
F0.9823718127452477
sVCopper (Cu+2) ABC transporter (periplasm)
p291
F0.98237181272697
sVCyanate exchange
p292
F0.9823718127452477
sVFumarate transport via proton symport (3 H) (periplasm)
p293
F0.9823718127269858
sVNADH dehydrogenase (menaquinone-8 & 0 protons)
p294
F0.9823718127249216
sVLeucine transaminase (irreversible)
p295
F-3.9372447247474705e-14
sVGuanine transport in via proton symport (periplasm)
p296
F0.9823718127254115
sVPhosphoethanolamine lipid A transport via ABC system (periplasm to extracellular)
p297
F0.9823718127241023
sVGlycerol-3-phosphate dehydrogenase (menaquinone-8)
p298
F0.9823718127269789
sV2-C-methyl-D-erythritol 2,4-cyclodiphosphate synthase
p299
F1.0345215261109968e-15
sVMalate dehydrogenase (menaquinone 8 as acceptor)
p300
F0.98237181272698
sVPhospholipase A1 (phosphatidate, n-C18:1) (periplasm)
p301
F0.9823718127269816
sVProlyl-tRNA synthetase
p302
F0.9823718127269673
sVGlycerophosphodiester phosphodiesterase (Glycerophosphoinositol)
p303
F0.9823718127269799
sVDiaminohydroxyphosphoribosylaminopryrimidine deaminase (25drapp)
p304
F1.946289499869856e-16
sVEnterochelin transport (secretion periplasm)
p305
F0.9823718127269746
sVNitrite transport via diffusion (extracellular to periplasm)
p306
F0.9823718127269777
sVL-valine transport via diffusion (extracellular to periplasm)
p307
F0.9823718127269768
sVS-adenosylmethione:2-demthylmenaquinole methyltransferase (menaquinone 8)
p308
F0.9823718127269778
sVAerobactin transport via ton system (extracellular)
p309
F0.982371812726983
sVOxamate transcarbamoylase
p310
F0.9823718127269748
sVGlycerol kinase
p311
F0.9823718127269792
sVCDP-Diacylglycerol pyrophostatase (n-C14:1)
p312
F0.9823718127269799
sVCopper (Cu +1) ABC transporter (periplasm)
p313
F0.98237181272697
sVHCO3 equilibration reaction
p314
F1.3919502580472525e-16
sVL-rhamnose isomerase
p315
F0.9823718127269824
sVUDP-3-O-(3-hydroxymyristoyl)glucosamine acyltransferase
p316
F-5.675872518836399e-17
sVGlycerol-2-phosphate phosphatase
p317
F0.9823718127269713
sVMalate decarboxylating oxidoreductase (decarboxylating)
p318
F0.9823718127269785
sVGMP reductase
p319
F0.9823718127269792
sV2,3-dihydroxycinnamate 1,2-dioxygenase
p320
F0.9823718127269784
sVPhosphatidylserine syntase (n-C18:0)
p321
F0.9823718127269796
sVMalic enzyme (NAD)
p322
F0.98237181272698
sVGuanosine-3',5'-bis(diphosphate) 3'-diphosphatase
p323
F0.9823718127268654
sVAsparagine synthase (glutamine-hydrolysing)
p324
F0.9823718127269726
sVMaltodextrin phosphorylase (maltohexaose)
p325
F0.9823718127269826
sVPhosphoglycerate mutase
p326
F0.9049381797280707
sVNucleoside triphosphate pyrophosphorylase (atp)
p327
F0.9823718127269777
sVD-sorbitol transport via diffusion (extracellular to periplasm)
p328
F0.9823718127269767
sVMaltotriose exchange
p329
F0.9823718127269807
sVNickel (+2) transport in via permease (no H+)
p330
F0.9823704966528977
sVMethanol exchange
p331
F1.6556136731830514e-16
sVL-tartrate exchange
p332
F0.9823718127269764
sVIron (II) transport via ABC system (periplasm)
p333
F0.9823718127269746
sVPhosphatidylserine syntase (n-C16:1)
p334
F0.0
sVPhosphonate hydrogenase (periplasm)
p335
F0.9823718127269765
sVL-Threonine exchange
p336
F0.9823718127269764
sVDiaminopimelate decarboxylase
p337
F0.0
sV2-dehydro-3-deoxy-D-gluconate transport via proton symport, reversible (periplasm)
p338
F0.9823718127336012
sV(R)-Propane-1,2-diol transport via diffusion (extracellular to periplasm)
p339
F0.9823718127269803
sVHydrogen transport diffusion (periplasm)
p340
F0.9823718127269764
sVQuinol monooxygenase (menaquinol 8)
p341
F0.9823718127269754
sVPyrroline-5-carboxylate reductase
p342
F0.0
sVSn-glycerol-3-phosphocholine transport via ABC system (periplasm)
p343
F0.9823718127269713
sVGalactitol-1-phosphate dehydrogenase
p344
F0.9823718127269783
sVUDP-L-Ara4N formyltransferase
p345
F0.9823718127269766
sV4-Amino-4-deoxy-L-arabinose modified core oligosaccharide lipid A exchange
p346
F0.9823718127269738
sVLeucyl-tRNA synthetase
p347
F0.9823718127269806
sVFe-enterobactin exchange
p348
F0.9823718127452477
sVEthanolamine exchange
p349
F0.9823718127452477
sVNa+/Propionate symporter (periplasm)
p350
F0.982371812726978
sVNitrous oxide exchange
p351
F0.982371812726975
sVPhosphoserine transaminase
p352
F0.960665997673424
sVFe(III)hydroxamate reductase
p353
F0.9823718127269746
sV5,10-methylenetetrahydrofolate reductase (NADH)
p354
F-4.192778495866009e-15
sV1,4-dihydroxy-2-napthoyl-CoA thioesterase
p355
F0.9823718127269789
sVL-carnitine transport via diffusion (extracellular to periplasm)
p356
F0.9823718127269816
sV3-oxoacyl-[acyl-carrier-protein] synthase (n-C6:0)
p357
F0.9823718127269759
sVAspartate transport via proton symport (2 H) (periplasm)
p358
F0.9823718127269682
sVAcetate reversible transport via proton symport (periplasm)
p359
F0.9823718127269793
sVPyridoxine 5'-phosphate oxidase (anaerboic
p360
F0.982371812726969
sVLysophospholipase L1 (2-acylglycerophosphoethanolamine, n-C16:1) (periplasm)
p361
F0.9823718127269809
sVPhosphatidate transport via ABC system (n-C12:0, periplasm)
p362
F0.9823718127269768
sVMyo-Inositol hexakisphosphate exchange
p363
F0.9823718127269727
sVPhosphotyrosine exchange
p364
F0.9823718127269764
sV2-Acyl-sn-glycero-3-phosphoethanolamine (n-C16:0) transporter via facilitated diffusion (periplasm)
p365
F0.9823718127269803
sVMg exchange
p366
F0.0
sVFatty-acid-CoA ligase (tetradecenoate transport via vectoral Co-A coupling)
p367
F0.9823718127269873
sV3-cis-2-trans-enoyl-CoA isomerase
p368
F0.9823718127269765
sVCyanide sulfurtransferase (periplasmic)
p369
F0.9823718127269782
sVCitrate lyase
p370
F0.982371812726979
sVNucleoside triphosphate pyrophosphorylase (dctp)
p371
F0.9823718127269777
sV2,5-diketo-D-gluconate reductase
p372
F0.9823718127269763
sV2,3-dihydroxypheylpropionate 1,2-dioxygenase
p373
F0.9823718127269762
sVO-Acetyl-L-serine export via facilitated transport
p374
F0.9823718127269793
sVPutrescine Transaminase
p375
F0.9823718127269796
sVL-glutamate transport via ABC system (periplasm)
p376
F0.9823718127269792
sVAcyl-[acyl-carrier-protein] synthetase  (n-C16:1)
p377
F0.9816062539943449
sVPhospholipase A1 (phosphatidylethanolamine, n-C14:0) (periplasm)
p378
F0.9823718127269816
sVFormate transport via diffusion (extracellular to periplasm)
p379
F0.9823718127269746
sVD-glycerate transport via diffusion (extracellular to periplasm)
p380
F0.9823718127269792
sVL-Lyxose transport via diffusion (extracellular to periplasm)
p381
F0.9823718127269809
sVLysophospholipase L2 (acyltransferase, 2-acyl-glycerophosphoethanolamine, n-C18:0)
p382
F0.9823718127269809
sVCoprogen Fe-loading reaction (spontaneaous)
p383
F0.9823718127269837
sVLalaDgluMdap (tripeptide) transport via diffusion (extracellular to periplasm)
p384
F0.9823718127269759
sVL-valine transport via ABC system (periplasm)
p385
F0.9823718127269768
sVKDO(2)-lipid (A) exchange
p386
F0.9823718127269807
sVBiotin synthase
p387
F0.0
sVMercury (Hg+2) ABC transporter (periplasm)
p388
F0.9823718127269775
sVCyanide sulfurtransferase
p389
F0.9823718127269782
sVOxygen Independent coproporphyrinogen-III oxidase
p390
F0.9823718127269816
sVD-fructose 6-phosphate exchange
p391
F0.9823718127452477
sVGlutathione export via ABC system (cytoplasm to periplasm)
p392
F0.9823718127269803
sVDeoxyribose-phosphate aldolase
p393
F0.9823718127269767
sV3-hydroxyacyl-CoA dehydratase (3-hydroxyhexadecanoyl-CoA)
p394
F0.9809576641130378
sVTetracycline transport via TolC system
p395
F0.9823718127269826
sV3-Hydroxypropanoate exchange
p396
F0.9823718127269738
sVInorganic diphosphatase
p397
F0.982371812726978
sVGlucose-6-phosphate isomerase
p398
F0.9761293262947276
sVAdentylate kinase (GTP)
p399
F0.9823718127269793
sVIMP exchange
p400
F0.9823718127269754
sVNicotinamidase
p401
F0.9823718127269808
sVD-xylose transport via diffusion (extracellular to periplasm)
p402
F0.9823718127269766
sVGalactonate dehydratase
p403
F0.9823718127269782
sVLipid A disaccaride synthase
p404
F5.3735198150579935e-31
sVThymidine kinase (ATP:thymidine)
p405
F0.9823718127269779
sV2-Acyl-sn-glycero-3-phosphoglycerol (n-C18:1) transporter via facilitated diffusion (periplasm)
p406
F0.9823718127269803
sVL-aspartate transport via ABC system (periplasm)
p407
F0.9823718127269682
sVApolipoprotein N-acyltransferase (phosphatidylethanolamine, periplasm)
p408
F0.9823718127269725
sVFerric 2,3-dihydroxybenzoylserine transport via ton system (extracellular)
p409
F0.9823718127269746
sVDimethyl sulfoxide reductase (Menaquinol 8) (periplasm)
p410
F0.9823718127269773
sVGDP-D-mannose dehydratase
p411
F0.9823718127269792
sVNickle (Ni+2) ABC transporter (periplasm)
p412
F0.982371812727596
sVThiamine-phosphate diphosphorylase
p413
F0.0
sV3-hydroxyacyl-[acyl-carrier-protein] dehydratase (n-C18:1)
p414
F0.9823718127269803
sVL-Proline exchange
p415
F0.9823718127269758
sV3-Oxo-pimeloyl-[ACP] methyl ester dehydratase
p416
F0.0
sVUDP-4''-ketopentose:UDP-4-amino-4-deoxy-L-arabinose aminotransferase
p417
F0.9823718127269807
sVLysophospholipase L2 (2-acylglycerophosphoethanolamine, n-C14:1)
p418
F0.9823718127269809
sVSuccinate-semialdehyde dehydrogenase (NADP)
p419
F0.9823718127269723
sVCysteine Desulfhydrase
p420
F0.9823718127269782
sVL-proline transport via diffusion (extracellular to periplasm)
p421
F0.9823718127269673
sVCDP-diacylglycerol synthetase (n-C16:1)
p422
F0.0
sV2-succinyl-5-enolpyruvyl-6-hydroxy-3-cyclohexene-1-carboxylate synthase
p423
F0.9823718127269767
sVUDP-N-acetyl-D-glucosamine transport via diffusion (extracellular to periplasm)
p424
F0.9823718127269799
sVSelenate glutathione reductase II
p425
F0.9823718127269767
sVD-methionine transport via diffusion (extracellular to periplasm)
p426
F0.9823718127269799
sV1,4-alpha-glucan branching enzyme (glycogen -> bglycogen)
p427
F0.9823718127269806
sV1-hexadecanoyl-sn-glycerol 3-phosphate O-acyltransferase (n-C16:0)
p428
F1.3770794108557794e-16
sVBiotin exchange
p429
F0.9823718127269738
sVFerroxamine reductase
p430
F0.9823718127269746
sVMurein L,D-endopeptidase (murein5px3p) (periplasm)
p431
F0.9823718127269826
sVPhosphogluconate dehydrogenase
p432
F0.9755115436722563
sVD-Malate transport via proton symport (2 H) (periplasm)
p433
F0.9823718127269785
sVEnterochelin synthase
p434
F0.982371812726979
sVIsopentenyl-diphosphate D-isomerase
p435
F0.9823718127269814
sVN-acetylornithine deacetylase
p436
F0.9823718127249216
sVDiacylglycerol kinase (n-C14:1)
p437
F0.9823718127269802
sVAnthranilate phosphoribosyltransferase
p438
F-8.544984840235468e-16
sV2-O-alpha-mannosyl-D-glycerate transport via PEP:Pyr PTS (periplasm)
p439
F0.9823718127269785
sVThiamin pyrophosphatase
p440
F0.9823718127269722
sVPhosphoenolpyruvate synthase
p441
F0.9823718127269765
sVSink needed to allow aminoacetaldehyde to leave system
p442
F0.982371812726979
sVFumarate transport via diffusion (extracellular to periplasm)
p443
F0.9823718127269858
sVD-Galacturonate exchange
p444
F0.9823718127452477
sV2-dehydro-3-deoxygalactonokinase
p445
F0.9823718127336012
sVCalcium / sodium antiporter (1:1)
p446
F0.0
sVRhamnulokinase
p447
F0.9823718127269824
sVGalactitol exchange
p448
F0.9823718127452477
sV2-Acyl-sn-glycero-3-phosphatidate (n-C16:1) transporter via facilitated diffusion (periplasm)
p449
F0.9823718127269803
sVAerobactin secretion (to periplasm)
p450
F0.982371812726983
sV3-hydroxyacyl-[acyl-carrier-protein] dehydratase (n-C12:1)
p451
F0.9823718127269803
sVUDP-D-glucuronate exchange
p452
F0.9823718127269764
sVUDPglucose 6-dehydrogenase
p453
F0.9823718127269807
sVDiacylglycerol kinase (n-C16:1)
p454
F0.9823718127269802
sVButyrate transport via proton symport, reversible (periplasm)
p455
F0.9823718127269773
sVHypoxanthine exchange
p456
F0.9823718127269754
sVTaurine transport via diffusion (extracellular to periplasm)
p457
F0.9823718127269722
sVFumarate transport via proton symport (2 H) (periplasm)
p458
F0.9823718127269858
sVTransaldolase
p459
F0.9823718127269722
sVDeoxyuridine transport via diffusion (extracellular to periplasm)
p460
F0.9823718127269854
sVEnterochelin exchange
p461
F0.9823718127452477
sVUDPglucose--hexose-1-phosphate uridylyltransferase
p462
F0.9823718127269807
sVPhospholipase A1 (phosphatidate, n-C14:0) (periplasm)
p463
F0.9823718127269816
sVD-alanyl-D-alanine (DalaDala) transport via ABC system (periplasm)
p464
F0.9823718127269783
sVThiamin exchange
p465
F0.9823718127269764
sVSn-glycerol-3-phosphoglycerol transport via ABC system (periplasm)
p466
F0.9823718127269789
sVDihydropteridine reductase
p467
F0.9823718127228137
sVSuccinate:D-tartrate antiporter (periplasm)
p468
F0.9823718127269722
sVD-sorbitol transport via PEP:Pyr PTS (periplasm)
p469
F0.9823718127269767
sVAlpha-ketoglutarate transport via diffusion (extracellular to periplasm)
p470
F0.9823718127269783
sVGDP-mannose mannosyl hydrolase
p471
F0.9823718127268865
sVD-glucose transport via PEP:Pyr PTS (periplasm)
p472
F0.972002678119353
sV4-hydroxy-2-oxopentanoate aldolase
p473
F0.9823718127269758
sV2-C-methyl-D-erythritol 4-phosphate cytidylyltransferase
p474
F-2.78958159622489e-16
sV3-Dimethylubiquinonol 3-methyltransferase
p475
F0.9823718127269773
sVPutrescine transport via ABC system (periplasm)
p476
F0.9823718127269796
sV3-(3-hydroxyphenyl)propionate transport via proton symport, reversible (periplasm)
p477
F0.9823718127269762
sV1,4-dihydroxy-2-naphthoate octaprenyltransferase
p478
F0.9823718127269789
sVLalaDgluMdapDala (pentapeptide) transport via diffusion (extracellular to periplasm)
p479
F0.9823718127269759
sVD-glucosamine 6-phosphate transport via diffusion (extracellular to periplasm)
p480
F0.9823718127269782
sVO16 antigen (flippase, cytoplasm to periplasm)
p481
F0.9823718127269777
sVL-Tyrosine exchange
p482
F0.9823718127269764
sVFructoselysine transporter via diffusion (extracellular)
p483
F0.9823718127269746
sVPhosphatidylglycerol transport via ABC system (n-C16:0, periplasm)
p484
F0.9823718127269889
sVUDP-N-acetylmuramoyl-L-alanyl-D-glutamate synthetase
p485
F1.0878285984656501e-30
sVShikimate exchange
p486
F0.9823718127269758
sVSuccinyldiaminopimelate transaminase
p487
F0.0
sV5'-nucleotidase (dGMP)
p488
F0.9823718127269777
sVPotassium transport in via proton symport (periplasm)
p489
F0.9817756836886808
sVD-galactonate transport via diffusion (extracellular to periplasm)
p490
F0.9823718127269782
sVLysophospholipase L2 (2-acylglycerophosphotidate, n-C18:0)
p491
F0.9823718127269809
sVDihydroneopterin aldolase reversible
p492
F0.0
sVMalonyl-ACP decarboxylase
p493
F0.9823718127269809
sVEnoyl-[acyl-carrier-protein] reductase (NADPH) (n-C16:1)
p494
F0.9823718127269858
sVDTDP-4-amino-4,6-dideoxy-D-glucose transaminase
p495
F0.9823718127269722
sVN-acetylneuraminate transport via diffusion (extracellular to periplasm)
p496
F0.9823718127269774
sVGlycerate kinase
p497
F0.9823718127269792
sVLysophospholipase L1 (2-acylglycerophosphoethanolamine, n-C16:0) (periplasm)
p498
F0.9823718127269809
sVN-acetylglucosamine-6-phosphate deacetylase
p499
F0.9823718127269785
sVAspartyl-tRNA synthetase
p500
F0.9823718127269682
sV6-phosphogluconolactonase
p501
F0.9755115436722407
sV7-cyano-7-deazaguanine reductase
p502
F0.9823718127269799
sVPhosphatidylglycerol phosphate phosphatase (n-C16:1)
p503
F0.9823718127269796
sVL-histidine transport via diffusion (extracellular to periplasm)
p504
F0.9823718127269758
sVValine transaminase
p505
F0.9823718127269768
sVEnoyl-[acyl-carrier-protein] reductase (NADPH) (n-C14:1)
p506
F0.9823718127269858
sVLysophospholipase L2 (acyltransferase, 2-acyl-glycerophosphoethanolamine, n-C18:1)
p507
F0.9823718127269809
sVEnoyl-[acyl-carrier-protein] reductase (NADH) (n-C12:1)
p508
F0.9823718127269858
sVLysophospholipase L2 (2-acylglycerophosphoethanolamine, n-C18:0)
p509
F0.9823718127269809
sVEnterobactin Fe(III) binding (spontaneous)
p510
F0.9823718127269746
sVLPS heptose kinase I (LPS core synthesis)
p511
F0.9823718127269775
sVAldehyde dehydrogenase (acetaldehyde, NADP)
p512
F0.9823718127269725
sVAcyl-phosphate:glycerol-3-phosphate acyltransferase (C16:1)
p513
F0.9823718127269832
sVThymidine phosphorylase
p514
F0.9823718127269779
sVPhospholipase A2 (phosphatidate, n-C18:0) (periplasm)
p515
F0.9823718127269816
sVNitrate exchange
p516
F0.9823718127269775
sVAcyl-CoA dehydrogenase (butanoyl-CoA)
p517
F0.9720365831108327
sVPhospholipase A1 (phosphatidate, n-C16:1) (periplasm)
p518
F0.9823718127269816
sV2-acyl-glycerophospho-glycerol acyltransferase (n-C18:1)
p519
F0.9823718127269803
sVGuanosine exchange
p520
F0.9823718127276349
sVAcyl-[acyl-carrier-protein] synthetase  (n-C14:1)
p521
F0.9823718127269734
sVGlutathione hydralase (periplasmic)
p522
F0.9823718127269803
sVDephospho-CoA kinase
p523
F0.0
sV5-Dehydro-D-gluconate exchange
p524
F0.9823718127269738
sVIsocitrate lyase
p525
F0.9823718127269799
sVRibose 1-phosphokinase
p526
F0.9823718127269756
sVBeta D-Galactose exchange
p527
F0.9823718127452477
sVL-homoserineserine efflux via proton symport
p528
F0.9823718127269758
sVFe-enterobactin transport via ABC system (periplasm)
p529
F0.9823718127269746
sVLysophospholipase L2 (acyltransferase, 2-acyl-glycerophosphoethanolamine, n-C12:0)
p530
F0.9823718127269809
sVMannose-6-phosphate isomerase
p531
F0.9823718127269785
sVGlycero-3-phosphoethanolamine transport via diffusion (extracellular to periplasm)
p532
F0.9823718127269789
sV3-hydroxyacyl-[acyl-carrier-protein] dehydratase (n-C16:0)
p533
F0.9823718127269803
sVDimethyl sulfide transport via diffusion (extracellular to periplasm)
p534
F0.9823718127269773
sVD-fructuronate transport via diffusion (extracellular)
p535
F0.9823718127269746
sVPhosphatidylglycerol synthase (n-C18:0)
p536
F0.9823718127269796
sVPhosphate exchange
p537
F4.600875175902978e-15
sVLacaldehyde reductase (R-propane-1,2-diol forming)
p538
F0.9823718127269813
sVArginine decarboxylase
p539
F0.982371812726983
sV1,4-alpha-D-glucan transport via ABC system (periplasm)
p540
F0.9823718127269803
sVPantothenate synthase
p541
F-7.508837559055513e-13
sVOctanoate transport via diffusion (extracellular to periplasm)
p542
F0.9823718127269832
sVL-Aspartate exchange
p543
F0.9823718127269738
sVXanthosine 5'-phosphate exchange
p544
F0.9823718127269764
sVNucleoside-diphosphate kinase (ATP:dADP)
p545
F0.9823718127269759
sVAcyl-[acyl-carrier-protein] synthetase  (n-C16:0)
p546
F0.9817222111101134
sVZinc (Zn+2) transport via diffusion (extracellular to periplasm)
p547
F-1.192304441882886e-16
sVN-Acetyl-D-glucosamine(anhydrous)N-Acetylmuramyl beta -1,4-N-acetylglucosaminidase
p548
F0.9823718127269785
sVNa+/myo-inositol symporter (periplasm)
p549
F0.9823718127269814
sVD-allose transport via ABC system (periplasm)
p550
F0.9823718127269725
sVEnoyl-[acyl-carrier-protein] reductase (NADPH) (n-C18:1)
p551
F0.9823718127269858
sVAcyl-phosphate:glycerol-3-phosphate acyltransferase (C14:1)
p552
F0.9823718127269832
sVPhosphatidylglycerophosphate transport via ABC system (n-C16:1, periplasm)
p553
F0.9823718127269796
sVTransport (cytoplasm to periplasm)
p554
F0.9823718127269766
sVGlycolate exchange
p555
F0.9823718127276349
sVD-Glucuronate 1-phosphate exchange
p556
F0.9823718127276349
sVL-proline reversible transport via proton symport (periplasm)
p557
F0.9823718127269673
sVEnoyl-[acyl-carrier-protein] reductase (NADH) (n-C14:0)
p558
F0.9823718127269858
sVTriphosphoribosyl-dephospho-CoA synthase
p559
F0.9823718127269826
sV2,3-diaminopropionate exchange
p560
F0.9823718127269738
sV3-hydroxyacyl-CoA dehydrogenase (3-oxodecanoyl-CoA)
p561
F0.975956491830747
sV3-hydroxyacyl-[acyl-carrier-protein] dehydratase (n-C10:0)
p562
F0.9823718127269803
sVL-histidine transport via ABC system (periplasm)
p563
F0.9823718127269758
sVGlutathione oxidoreductase
p564
F0.9823718127269803
sVD-Carnitine-CoA Ligase
p565
F0.9823718127269816
sVManganese (Mn+2) transport via diffusion (extracellular to periplasm)
p566
F1.9612919183891177e-16
sVTagatose-bisphosphate aldolase
p567
F0.9823718127269773
sVFormaldehyde glutathione ligase (spontaneous)
p568
F0.9823718127269873
sVTetradecenoate transport via facilitated irreversible diffusion (extracellular to periplasm)
p569
F0.9823718127269826
sVCytidylate kinase (dCMP)
p570
F0.9823718127269802
sVGlutathione transport via diffusion (extracellular to periplasm)
p571
F0.9823718127269803
sVCTP synthase (glutamine)
p572
F7.559695914649477e-16
sVEnterochelin transport (secretion)
p573
F0.9823718127269746
sVDihydrodipicolinate synthase
p574
F6.001373677718299e-16
sVSedoheptulose 7-phosphate isomerase
p575
F0.9823718127269767
sVAcetyl-CoA:acetoacetyl-CoA transferase
p576
F0.9823718127269764
sV1,4-dihydroxy-2-napthoyl-CoA synthase
p577
F0.9823718127269789
sVL-aspartase
p578
F0.9823718127269679
sV3-hydroxyacyl-CoA dehydratase (3-hydroxydecanoyl-CoA)
p579
F0.9759564918307428
sVGTP amine hydrolysis (spontaneous)
p580
F0.9823718127254115
sVXanthosine transport via diffusion (extracellular to periplasm)
p581
F0.9823718127269766
sVIsethionic acid exchange
p582
F0.9823718127269754
sVAcetate transport via diffusion (extracellular to periplasm)
p583
F0.9823718127269793
sVCore oligosaccharide lipid A exchange
p584
F0.9823718127269776
sVHydrogen cyanide exchange
p585
F0.9823718127452477
sVNicotinic acid uptake (periplasm)
p586
F0.9823718127249216
sVAdenine transport via diffusion (extracellular to periplasm)
p587
F0.9823718127269797
sV1-hydroxy-2-methyl-2-(E)-butenyl 4-diphosphate reductase (ipdp)
p588
F0.9823718127269814
sVEndotoxin Synthesis (palmitoleoyl ACP)
p589
F0.9823718127269719
sVL-glutamate 5-semialdehyde dehydratase (spontaneous)
p590
F-1.255599497412819e-16
sVCyanate transport via diffusion (extracellular to periplasm)
p591
F0.9823718127269782
sVShikimate dehydrogenase
p592
F9.039942511206057e-16
sVDCMP exchange
p593
F0.9823718127452477
sVTrimethylamine N-oxide transport via diffusion (extracellular to periplasm)
p594
F0.9823718127269779
sVUDP-N-acetylglucosamine 1-carboxyvinyltransferase
p595
F1.0878285984656501e-30
sVLysophospholipase L2 (2-acylglycerophosphoethanolamine, n-C16:0)
p596
F0.9823718127269809
sVTyramine exchange
p597
F0.9823718127269764
sVD-glucarate transport via proton symport, reversible (periplasm)
p598
F0.9823718127269806
sVNickel transport via ABC system (uptake, periplasm)
p599
F0.9823718127269808
sVCitrate synthase
p600
F1.3548623819116637e-16
sVPhospholipase A1 (phosphatidylglycerol, n-C18:0) (periplasm)
p601
F0.9823718127269816
sVLysophospholipase L2 (2-acylglycerophosphoglycerol, n-C18:0)
p602
F0.9823718127269809
sVMaltose transport via ABC system (periplasm)
p603
F0.9823718127269785
sVD-alanine-D-alanine ligase (reversible)
p604
F0.0
sVFructoselysine transport via proton symport (periplasm)
p605
F0.9823718127269746
sVFMNH2-dependent monooxygenase (butanesulfonate)
p606
F0.9823718127269746
sVAminopeptidase (pro-gly)
p607
F0.9823718127269774
sVRibose transport via diffusion (extracellular to periplasm)
p608
F0.9823718127269824
sVHistidyl-tRNA synthetase
p609
F0.9823718127269758
sVIron (II) transport via diffusion (extracellular to periplasm)
p610
F0.9822884318333579
sVXanthine reversible transport (periplasm)
p611
F0.9823718127269766
sVRibose 5-phosphate transport via diffusion (extracellular to periplasm)
p612
F0.9823718127269756
sVAcetoacetate transport via proton symport  (periplasm)
p613
F0.9823718127269766
sVL-Leucine exchange
p614
F0.9823718127269807
sVMurein polymerizing transglycosylase 2 (three linked units)
p615
F0.9823718127269769
sV(2R,4S)-2-methyl-2,3,3,4-tetrahydroxytetrahydrofuran synthesis (spontaneous)
p616
F-1.3994994817790633e-12
sVKDO(2)-lipid IV(A) exchange
p617
F0.9823718127269807
sVDiacylglycerol kinase (n-C14:0)
p618
F0.9823718127269802
sVDCTP deaminase
p619
F0.9823718127336012
sVAdenosine exchange
p620
F0.9823718127269738
sVL-asparagine reversible transport via proton symport (periplasm)
p621
F0.9823718127269726
sVFerrichrome (minus Fe) secretion (to extracellular)
p622
F0.9823718127269746
sVCore oligosaccharide lipid A diphosphate exchange
p623
F0.9823718127269776
sVThiosulfate transport via ABC system (periplasm)
p624
F0.9823718127269826
sVPropionate kinase
p625
F0.982371812726978
sVL-isoleucine transport via diffusion (extracellular to periplasm)
p626
F0.9823718127269814
sVGeranyltranstransferase
p627
F8.835611700703015e-16
sV5'-nucleotidase (dCMP)
p628
F0.9823718127269777
sV23cCMP transport via diffusion (extracellular to periplasm)
p629
F0.9823718127269803
sVS-methylmethionine permease (periplasm)
p630
F0.9823718127269826
sV2-isopropylmalate synthase
p631
F0.0
sVD-Galactose exchange
p632
F0.9823718127452477
sVPorphobilinogen synthase
p633
F0.0
sVL-methionine-R-sulfoxide exchange
p634
F0.9823718127269813
sVButanesulfonate exchange
p635
F0.9823718127269738
sVDiacylglycerol kinase (n-C16:0)
p636
F0.9823718127269802
sVAcetate kinase
p637
F0.9823718127269779
sVL-alanyl-L-glutamate transport in via proton symport (periplasm)
p638
F0.9823718127269813
sVBis-molybdopterin guanine dinucleotide synthase (single GDP)
p639
F0.0
sVChloramphenicol transport via TolC system
p640
F0.9823718127269785
sVGlycine transport in via sodium symport (periplasm)
p641
F0.9823718127269792
sVPhospholipase A1 (phosphatidylglycerol, n-C16:0) (periplasm)
p642
F0.9823718127269816
sVAlpha-amylase (periplasm)
p643
F0.9823718127269764
sVTartronate semialdehyde reductase
p644
F0.9823718127269826
sVDeoxyuridine kinase (ATP:Deoxyuridine)
p645
F0.9823718127269854
sVAsparagine synthetase
p646
F0.981390605938304
sVPurine-nucleoside phosphorylase (Deoxyinosine)
p647
F0.9823718127269796
sVPhosphoadenylyl-sulfate reductase (glutaredoxin)
p648
F0.982371812726969
sVNucleoside-triphosphatase (CTP)
p649
F0.9823718127269777
sVFlavodoxin reductase (NADPH)
p650
F0.9823718127269746
sVUndecaprenyl phosphate-L-Ara4FN formylase
p651
F0.9823718127269766
sVUndecaprenyl phosphate transport (cytoplasm to periplasm)
p652
F0.9823718127269807
sVFormate transport via diffusion (cytoplasm to periplasm)
p653
F0.9823718127269746
sVGlucosyltransferase I (LPS O16 antigen biosynthesis)
p654
F0.9823718127269777
sVSulfate transport via ABC system (periplasm)
p655
F0.982371812726972
sVEnoyl-[acyl-carrier-protein] reductase (NADH) (n-C10:0)
p656
F0.9823718127269858
sVTryptophan synthase (indole)
p657
F0.9823718127269826
sVCDP-Diacylglycerol pyrophostatase (n-C18:0)
p658
F0.9823718127269799
sVXanthine transport via diffusion (extracellular to periplasm)
p659
F0.9823718127269766
sVPhospholipase A1 (phosphatidylglycerol, n-C18:1) (periplasm)
p660
F0.9823718127269816
sVPhosphatidylglycerol phosphate phosphatase (n-C14:1)
p661
F0.9823718127269796
sVPhosphoglucosamine mutase
p662
F7.894453207497514e-16
sVMannonate oxidoreductase
p663
F0.9823718127269785
sVTrehalose exchange
p664
F0.9823718127269764
sVDeoxyuridine phosphorylase
p665
F0.9823718127269854
sVMaltose exchange
p666
F0.9823718127269807
sVCrotonobetainyl-CoA: carnitine CoA transferase
p667
F0.9823718127269816
sVD-Alanyl-D-alanine exchange
p668
F0.9823718127269738
sVATP phosphoribosyltransferase
p669
F-8.387855537824965e-16
sVDiaminopimelate epimerase
p670
F0.0
sVMurein crosslinking transpeptidase 1A:(A2pm->D-ala) (periplasm)
p671
F0.98237181272698
sVIndole transport via proton symport, reversible (periplasm)
p672
F0.9823718127269814
sV3,4-Dihydroxy-2-butanone-4-phosphate synthase
p673
F0.0
sVD-Malate exchange
p674
F0.9823718127269807
sVGlycerol 3-phosphate exchange
p675
F0.9823718127276349
sVEnoyl-[acyl-carrier-protein] reductase (NADPH) (n-C16:0)
p676
F0.9823718127269858
sVPhosphatidylglycerophosphate transport via ABC system (n-C14:1, periplasm)
p677
F0.9823718127269796
sVPutrescine transport in via proton symport
p678
F0.9823718127269796
sVGamma glutamyl putrescine synthase
p679
F0.9823718127269813
sV2-Oxo-4-methyl-3-carboxypentanoate decarboxylation
p680
F0.0
sVSulfur dioxide exchange
p681
F0.9823718127269758
sVN-acetyl-D-mannosamine transport via diffusion (extracellular to periplasm)
p682
F0.9823718127269774
sVSn-Glycerol 3-phosphate transport via ABC system (periplasm)
p683
F0.9823718127269792
sVArginine succinyltransferase
p684
F0.9823718127269682
sVL-arginine transport via ABC system (periplasm)
p685
F0.982371812726983
sVPhosphatidylglycerol phosphate phosphatase (n-C16:0)
p686
F0.9823718127269796
sVCDP-Diacylglycerol pyrophostatase (n-C16:0)
p687
F0.9823718127269799
sV2-aceto-2-hydroxybutanoate synthase
p688
F-1.3831280421524715e-15
sV2-dehydro-3-deoxy-6-phosphogalactonate aldolase
p689
F0.9823718127349288
sVEnoyl-[acyl-carrier-protein] reductase (NADH) (n-C12:0)
p690
F0.9823718127269858
sVProton transport via diffusion (extracellular to periplasm)
p691
F0.9823718127273083
sVFructose transport via PEP:Pyr PTS (f6p generating) (periplasm)
p692
F0.9823718127269746
sVAcyl-phosphate:glycerol-3-phosphate acyltransferase (C16:0)
p693
F0.9823718127269832
sVGuanylate kinase (GMP:ATP)
p694
F3.0335107018678894e-17
sVBiotin transport via diffusion (extracellular to periplasm)
p695
F0.9823718127269825
sVD-galactose transport via diffusion (extracellular to periplasm)
p696
F0.9823718127269782
sVCholine transport via proton symport (periplasm)
p697
F0.9823718127269798
sVEnoyl-[acyl-carrier-protein] reductase (NADPH) (n-C14:0)
p698
F0.9823718127269858
sVEthanolamine transport via diffusion (extracellular)
p699
F0.9823718127269875
sVFatty-acyl-ACP hydrolase
p700
F0.9823718127269873
sVHomocysteine Methyltransferase
p701
F0.9823718127269775
sVProtoporphyrinogen oxidase (aerobic)
p702
F0.9823718127269765
sVUDP-N-acetyl-D-galactosamine exchange
p703
F0.9823718127269764
sV2-Dehydro-3-deoxy-D-gluconate exchange
p704
F0.9823718127269738
sV3-hydroxyacyl-[acyl-carrier-protein] dehydratase (n-C16:1)
p705
F0.9823718127269803
sV3-hydroxyacyl-CoA dehydrogenase (3-oxohexadecanoyl-CoA)
p706
F0.9809576641130412
sVMethylenetetrahydrofolate dehydrogenase (NADP)
p707
F0.9706980893369037
sVAspartate transaminase
p708
F-2.0130853290779916e-14
sV2-acyl-glycerophospho-glycerol acyltransferase (n-C18:0)
p709
F0.9823718127269803
sV3-(3-hydroxyphenyl)propionate transport via diffusion (extracellular to periplasm)
p710
F0.9823718127269762
sV3',5'-cyclic-nucleotide phosphodiesterase
p711
F0.982371812726969
sVEnoyl-[acyl-carrier-protein] reductase (NADH) (n-C18:1)
p712
F0.9823718127269858
sVISC [2Fe-2S] Synthesis
p713
F0.9823695961835145
sVL-Valine exchange
p714
F0.9823718127269764
sVCore oligosaccharide lipid A diphosphate transport via ABC system (periplasm to extracellular)
p715
F0.9823718127269837
sVCobalt (Co+2) transport via diffusion (extracellular to periplasm)
p716
F0.0
sVDihydrodipicolinate reductase (NADPH)
p717
F6.001373677718299e-16
sVPhosphatidylglycerol synthase (n-C18:1)
p718
F0.9823718127269796
sVMethenyltetrahydrofolate cyclohydrolase
p719
F0.9706980893368766
sV5-dehydro-D-gluconate reductase
p720
F0.9823718127269759
sV1-tetradecanoyl-sn-glycerol 3-phosphate O-acyltransferase (n-C14:0)
p721
F0.9823718127269785
sVD-lactate dehydrogenase
p722
F0.9823718127269813
sVPhosphate transport via diffusion (extracellular to periplasm)
p723
F3.6566848719493565e-15
sVFe-enterobactin transport via ton system (extracellular)
p724
F0.9823718127269746
sVL-Isoleucine exchange
p725
F0.9823718127269754
sVMolybdopterin adenylyltransferase
p726
F0.0
sVCadmium (Cd+2) transport via diffusion (extracellular to periplasm)
p727
F0.9823718127269799
sVL-Idonate exchange
p728
F0.9823718127269754
sVAmmonia reversible transport (periplasm)
p729
F8.168814974989763e-15
sVO16 antigen polymerase (periplasm)
p730
F0.9823718127269777
sVEnoyl-[acyl-carrier-protein] reductase (NADPH) (n-C18:0)
p731
F0.9823718127269858
sVL-alanine transport via diffusion (extracellular to periplasm)
p732
F0.9823718127269725
sVLysophospholipase L2 (2-acylglycerophosphoethanolamine, n-C18:1)
p733
F0.9823718127269809
sVAcyl-phosphate:glycerol-3-phosphate acyltransferase (C14:0)
p734
F0.9823718127269832
sVFructoselysine phosphate deglycase
p735
F0.9823718127269746
sVDihydroxyacetone transport via diffusion (extracellular to periplasm)
p736
F0.9823718127269784
sV2,3-dihydroxycinnamate dehydrogenase
p737
F0.9823718127269784
sV5-Dehydro-D-gluconate transport via proton symport, reversible (periplasm)
p738
F0.9823718127269759
sVEnoyl-[acyl-carrier-protein] reductase (NADH) (n-C14:1)
p739
F0.9823718127269858
sVCoproporphyrinogen oxidase (O2 required)
p740
F0.9823300178921053
sV3-deoxy-D-manno-octulosonic acid transferase III (LPS core biosynthesis)
p741
F0.9823718127269804
sVErythronate 4-phosphate (4per) dehydrogenase
p742
F0.0
sVD-galactose 1-phosphatase
p743
F0.9823718127269782
sVOctadecenoate (n-C18:1) transport via facilitated irreversible diffusion (extracellular to periplasm)
p744
F0.9823718127269832
sVCuprous Oxidase (Cu+1)
p745
F0.98237181272697
sVThreonine synthase
p746
F0.0
sVGlycerophosphserine transport via diffusion (extracellular to periplasm)
p747
F0.9823718127269789
sVAcetyl-CoA:butyrate-CoA transferase
p748
F0.9823718127269773
sVMaltodextrin glucosidase (maltopentaose)
p749
F0.9823718127269826
sVFerric 2,3-dihydroxybenzoylserine transport via ABC system (periplasm)
p750
F0.9823718127269746
sVLysophospholipase L1 (2-acylglycerophosphotidate, n-C16:1) (periplasm)
p751
F0.9823718127269809
sVOrnithine carbamoyltransferase
p752
F0.0
sVEnoyl-[acyl-carrier-protein] reductase (NADPH) (n-C12:1)
p753
F0.9823718127269858
sV3-(3-hydroxy-phenyl)propionate hydroxylase
p754
F0.9823718127269803
sVGlutamate dehydrogenase (NADP)
p755
F0.9487730068948107
sVMethylthioadenosine nucleosidase
p756
F0.9823718127249221
sV3-methyl-2-oxobutanoate hydroxymethyltransferase
p757
F4.141954501502758e-13
sVN-Acetylneuraminate lyase
p758
F0.9823718127269774
sV3-Oxo-pimeloyl-[ACP] methyl ester synthase
p759
F0.0
sVTetrahydrodipicolinate succinylase
p760
F0.0
sVPhospholipase A2 (phosphatidylethanolamine, n-C18:0) (periplasm)
p761
F0.9823718127269816
sVFlavin reductase
p762
F0.9823718127269746
sVUDP-N-acetyl-D-galactosamine transport via diffusion (extracellular to periplasm)
p763
F0.9823718127269807
sVN-acetyl-D-galactosamine 1-phosphate transport via diffusion (extracellular to periplasm)
p764
F0.982371812726976
sVThymine transport via diffusion (extracellular to periplasm)
p765
F0.9823718127269752
sVAcetolactate synthase
p766
F-3.646233549490138e-15
sV2-octaprenyl-6-methoxyphenol hydroxylase
p767
F0.9823718127269794
sVUDPglucose pyrophosphohydrolase
p768
F0.9823718127269807
sVAlpha-D-Galactose 1-phosphate exchange
p769
F0.9823718127452477
sVD-glucose transport in via proton symport (periplasm)
p770
F0.9823718127269806
sVNucleoside-triphosphatase (dITP)
p771
F0.9823718127269777
sVUDPgalactopyranose mutase
p772
F0.9823718127269807
sVGalactitol transport via diffusion (extracellular to periplasm)
p773
F0.9823718127269782
sVAp4A synthetase
p774
F0.9823718127269832
sVEnoyl-[acyl-carrier-protein] reductase (NADH) (n-C16:1)
p775
F0.9823718127269858
sV2-acyl-glycerophospho-glycerol acyltransferase (n-C16:1)
p776
F0.9823718127269803
sVGlucose 6-phosphate transport via diffusion (extracellular to periplasm)
p777
F0.9823718127269782
sVPhosphatidate phosphatase (n-C12:0)
p778
F0.9823718127269696
sVMalate dehydrogenase (ubiquinone 8 as acceptor)
p779
F0.98237181272698
sVPhosphotransacetylase
p780
F0.9823718127269796
sVAdenylsuccinate lyase
p781
F-1.084718449067591e-14
sVLysophospholipase L1 (2-acylglycerophosphoethanolamine, n-C14:0) (periplasm)
p782
F0.9823718127269809
sV2,3 dioxo-L-gulonate reductase
p783
F0.9823718127269775
sV4-amino-4-deoxy-L-arabinotransferase (LPS lipid A modification, periplasmic face of membrane))
p784
F0.9823718127269813
sVL-Lactate dehydrogenase (ubiquinone)
p785
F0.9823718127269813
sVFormate transport via proton symport (uptake only, periplasm)
p786
F0.9823718127269746
sVEnolase
p787
F0.9049381797280706
sVL-glutamate transport via diffusion (extracellular to periplasm)
p788
F0.9823718127269792
sVInsosine kinase
p789
F0.9823718127269814
sV2-methylcitrate synthase
p790
F0.9823718127269785
sVGlycerophosphodiester phosphodiesterase (Glycerophosphocholine)
p791
F0.9823718127269799
sVCyclopropane fatty acid synthase (Phosphatidylglycerol, n-C16:0)
p792
F0.9823718127269798
sVDecanoate transport via diffusion (extracellular to periplasm)
p793
F0.9823718127336012
sVAcyl-[acyl-carrier-protein] synthetase  (n-C18:1)
p794
F0.9823718127269764
sVDiacylglycerol kinase (n-C18:1)
p795
F0.9823718127269802
sVL-aspartate transport via diffusion (extracellular to periplasm)
p796
F0.9823718127269682
sVPhosphoglycerate kinase
p797
F0.8560604810974038
sVGlucose-6-phosphate phosphatase
p798
F0.9823718127269782
sVInosine transport in via proton symport (periplasm)
p799
F0.9823718127269814
sVNitric oxide transport via diffusion (extracellular to periplasm)
p800
F0.9823718127269777
sVPhospholipase A1 (phosphatidate, n-C16:0) (periplasm)
p801
F0.9823718127269816
sVD-xylose transport in via proton symport (periplasm)
p802
F0.9823718127269766
sVCatalase
p803
F0.982371812726977
sVCopper (Cu+1) transport via diffusion (extracellular to periplasm)
p804
F0.9823718127269782
sVFructoselysine 3-epimerase
p805
F0.9823718127269746
sVAcetaldehyde transport via diffusion (extracellular to periplasm)
p806
F0.9823718127269766
sVDihydrouracil dehydrogenase (NAD)
p807
F0.9823718127269854
sV2,5-diketo-D-gluconate reductase (NADH)
p808
F0.9823718127269763
sVAdenylosuccinate lyase
p809
F-3.2753808006063018e-15
sVLipid (cold) A transport via ABC system (periplasm)
p810
F0.9823718127269806
sV2-acyl-glycerophospho-glycerol acyltransferase (n-C12:0)
p811
F0.9823718127269803
sV2-dehydro-3-deoxygluconokinase
p812
F0.9823718127336012
sVCysteinyl-tRNA synthetase
p813
F0.9823718127269782
sV2(alpha-D-Mannosyl)-D-glycerate exchange
p814
F0.9823718127269807
sVD-Gluconate exchange
p815
F0.9823718127276349
sVDCMP transport via diffusion (extracellular to periplasm)
p816
F0.9823718127336012
sVAcyl-[acyl-carrier-protein] synthetase  (n-C12:0)
p817
F0.9819756015133023
sVPantothenate kinase
p818
F-5.377477752866701e-17
sVAminobutyraldehyde dehydrogenase
p819
F0.9823718127269764
sV3-oxoacyl-[acyl-carrier-protein] synthase (n-C8:0)
p820
F0.9823718127269759
sVDethiobiotin synthase
p821
F0.0
sVMannose-1-phosphate guanylyltransferase (GDP)
p822
F0.9823718127269785
sVLysophospholipase L2 (2-acylglycerophosphoethanolamine, n-C16:1)
p823
F0.9823718127269809
sVL-arabinose transport via proton antiport (periplasm)
p824
F0.982371812726983
sV2-dehydro-L-gulonate reductase (NADH)
p825
F0.9823718127269803
sVLysophospholipase L1 (2-acylglycerophosphoethanolamine, n-C14:1) (periplasm)
p826
F0.9823718127269809
sVD-glucosamine transport via diffusion (extracellular to periplasm)
p827
F0.9823718127269782
sVBeta-Alanine exchange
p828
F0.9823718127269738
sVOxygen transport via diffusion (extracellular to periplasm)
p829
F0.24150155709710944
sV3'-GMP exchange
p830
F0.9823718127269738
sVHexokinase (D-glucose:ATP)
p831
F0.9823718127269775
sV(R)-Propane-1,2-diol facilitated transport (periplasm)
p832
F0.9823718127269803
sVGlycolate dehydrogenase (NAD)
p833
F0.9823718127269792
sVAdenosylcobalimin transport via ton system (extermal)
p834
F0.9823718127269797
sVArginyl-tRNA synthetase
p835
F0.982371812726983
sVFructose 6-phosphate transport via diffusion (extracellular to periplasm)
p836
F0.9823718127269873
sV5'-nucleotidase (CMP)
p837
F0.9823718127269777
sVLysophospholipase L2 (acyltransferase, 2-acyl-glycerophosphoethanolamine, n-C14:1)
p838
F0.9823718127269809
sVSpermidine acetyltransferase
p839
F0.9823718127269723
sVL-alanyl-gamma-L-glutamate peptidase
p840
F0.9823718127269813
sVD-galactarte transport via diffusion (extracellular to periplasm)
p841
F0.9823718127269782
sVPhosphatidylglycerol phosphate phosphatase (n-C14:0)
p842
F0.9823718127269796
sVFormyltetrahydrofolate deformylase
p843
F0.9823718127269746
sV4-hydroxyphenylacetaldehyde transport via diffusion (extracellular to periplasm)
p844
F0.9823718127269759
sVSedoheptulose 1,7-bisphosphate D-glyceraldehyde-3-phosphate-lyase
p845
F0.9823718127269874
sVAcyl-[acyl-carrier-protein] synthetase  (n-C10:0)
p846
F0.9823718127269764
sVCDP-Diacylglycerol pyrophostatase (n-C18:1)
p847
F0.9823718127269799
sVL-threonine  via sodium symport (periplasm)
p848
F0.9823718127269752
sVAerobactin secretion (to extracellular)
p849
F0.982371812726983
sVPutrescine transport via diffusion (extracellular to periplasm)
p850
F0.9823718127269796
sVO-succinylbenzoate-CoA ligase
p851
F0.9823718127269723
sVGlyoxalate carboligase
p852
F0.9823718127269792
sVAerobactin reductase
p853
F0.982371812726983
sVAminopropylcadaverine synthase
p854
F0.9823718127269832
sVDTDP-4-dehydrorhamnose 3,5-epimerase
p855
F0.9823718127269722
sVPhosphatidylethanolamine transport via ABC system (n-C14:1, periplasm)
p856
F0.9823718127306718
sVAcylphosphatase (C16:1)
p857
F0.9823718127269832
sVUridine transport via diffusion (extracellular to periplasm)
p858
F0.982371812726977
sVFerroxamine exchange
p859
F0.9823718127452477
sVLysophospholipase L1 (2-acylglycerophosphoglycerol, n-C18:1) (periplasm)
p860
F0.9823718127269809
sVL-Rhamnose exchange
p861
F0.9823718127269758
sVAdenosine transport in via proton symport (periplasm)
p862
F0.9823718127269797
sVXanthosine exchange
p863
F0.9823718127269764
sVD-Glucarate exchange
p864
F0.9823718127276349
sVFerrichrome Fe(III)-loading reaction (spontaneous)
p865
F0.9823718127269746
sVD-carnitine transport via ABC system (periplasm)
p866
F0.9823718127269816
sVN-Acetylmuramate exchange
p867
F0.9823718127269738
sVDihydroorotic acid (menaquinone-8)
p868
F0.9823718127269789
sVInosine hydrolase
p869
F0.9823718127269814
sVD-lactate transport via proton symport (periplasm)
p870
F0.9823718127269802
sVDihydoorotic acid dehydrogenase (quinone8)
p871
F0.9823718127269789
sVAcylphosphatase (C14:1)
p872
F0.9823718127269832
sVL-tyrosine transport via diffusion (extracellular to periplasm)
p873
F0.9823718127269827
sVThymine exchange
p874
F0.9823718127269764
sVEthanesulfonate transport via diffusion (extracellular to periplasm)
p875
F0.9823718127269875
sVCDP-Diacylglycerol pyrophostatase (n-C16:1)
p876
F0.9823718127269799
sVPhopho-L-tyrosine transport via diffusion (extracellular to periplasm)
p877
F0.9823718127269826
sVAdenosylcobalamin 5'-phosphate synthase
p878
F0.9823718127269797
sVAspartate-semialdehyde dehydrogenase
p879
F9.116049656554156e-16
sV1-tetradecanoyl-sn-glycerol 3-phosphate O-acyltransferase (n-C12:0)
p880
F0.9823718127269785
sVCoprogen transport via ABC system (periplasm)
p881
F0.9823718127269837
sVO-Phospho-L-serine exchange
p882
F0.9823718127269758
sVRing 1,2-phenylacetyl-CoA epoxidase (NADPH)
p883
F0.9823718127269768
sVLipid A core kinase (periplasm)
p884
F0.9823718127269837
sV2-dehydro-L-gulonate reductase (NADPH)
p885
F0.9823718127269803
sVPhosphatidylglycerol synthase (n-C12:0)
p886
F0.9823718127269796
sVRibose 5-phosphate phosphatase
p887
F0.9823718127269756
sV3-Oxo-pimeloyl-[ACP] methyl ester reductase
p888
F0.0
sVProtoheme transport via ABC system (periplasm)
p889
F0.9823718127269796
sVPhosphatidylglycerol phosphate phosphatase (periplasm, n-C14:1)
p890
F0.9823718127269796
sVPhosphatidate phosphatase (n-C14:1)
p891
F0.9823718127269696
sVNO transport (diffusion)
p892
F0.9823718127269777
sVL-histidine reversible transport via proton symport (periplasm)
p893
F0.9823718127269758
sVDiacylglycerol kinase (n-C12:0)
p894
F0.9823718127269802
sVEnoyl-[acyl-carrier-protein] reductase (NADH) (n-C18:0)
p895
F0.9823718127269858
sVTrimethylamine N-oxide reductase (demethylmenaquinol 8) (periplasm)
p896
F0.9823718127269779
sVGamma-hydroxybutyrate dehydrogenase (NADH)
p897
F0.9823718127269813
sVMethionine synthase
p898
F-2.306094123460471e-16
sVGlucosyltransferase II (LPS O16 antigen biosynthesis)
p899
F0.9823718127269777
sVFerric-dicitrate transport via ton system (extracellular)
p900
F0.9823718127269746
sVCarnitine/butyrobetaine antiporter (periplasm)
p901
F0.9823718127269816
sVQuinate exchange
p902
F0.9823718127269758
sVEnterobacterial common antigen (x4) O-antigen ligase (periplasm)
p903
F0.9823718127269858
sVN-Acetyl-D-glucosamine(anhydrous)N-Acetylmuramyl-tetrapeptide amidase
p904
F0.9823718127269785
sVMalate transport via proton symport (3 H) (periplasm)
p905
F0.9823718127269785
sV2-Octaprenyl-6-methoxy-benzoquinol methylase
p906
F0.9823718127269799
sVGlyceraldehyde-3-phosphate dehydrogenase
p907
F0.8560604810972103
sVAdenosylcobalamin transport via ABC system (periplasm)
p908
F0.9823718127269797
sVAcetyl-CoA:anthranilate acetyltransferase
p909
F0.9823718127269766
sVDimethyl sulfoxide exchange
p910
F0.9823718127452477
sVRing 1,2-epoxyphenylacetyl-CoA isomerase (oxepin-CoA forming)
p911
F0.9823718127269822
sVCytosine transport via diffusion (extracellular to periplasm)
p912
F0.9823718127269765
sVNucleoside-triphosphatase (GTP)
p913
F0.9823718127269777
sV2,3-diaminopropionate transport in via proton symport
p914
F0.9823718127269803
sVPyridoxine import
p915
F0.9823718127269796
sV7-deaza-7-carboxyguanine synthase
p916
F0.9823718127269799
sVL-Lactate exchange
p917
F0.9823718127269807
sVHomoserine dehydrogenase (NADPH)
p918
F0.0
sVLipoyl-adenylate protein ligase
p919
F0.9823718127269806
sVUMP exchange
p920
F0.9823718127269764
sV2-acyl-glycerophospho-glycerol acyltransferase (n-C14:1)
p921
F0.9823718127269803
sVGuanosine transport in via proton symport (periplasm)
p922
F0.9823718127269803
sVL-serine dehydrogenase
p923
F0.9823718127269809
sVCytidine transport in via proton symport (periplasm)
p924
F0.9823718127269802
sVDIMP exchange
p925
F0.9823718127452477
sVAdenosylmethionine decarboxylase
p926
F0.9823718127269793
sVCyanate transport via proton symport (periplasm)
p927
F0.9823718127269782
sVPhosphatidylglycerol phosphate phosphatase (n-C18:1)
p928
F0.9823718127269796
sVAdenylate kinase
p929
F0.9823718127269793
sVFMNH2-dependent monooxygenase (ethanesulfonate)
p930
F0.9823718127269746
sVCore oligosaccharide lipid A:hexadecanoate transferase (n-C16:0) (extracellular membrane)
p931
F0.9823718127269806
sVEnoyl-[acyl-carrier-protein] reductase (NADPH) (n-C12:0)
p932
F0.9823718127269858
sV3-hydroxyacyl-CoA dehydrogenase (3-oxotetradecanoyl-CoA)
p933
F0.9787103646746796
sVFatty-acid-CoA ligase (dodecanoate transport via vectoral Co-A coupling)
p934
F0.9823718127269873
sVL-Cysteine exchange
p935
F0.9823718127452477
sVSuperoxide anion transport via diffusion (extracellular to periplasm)
p936
F0.9823718127269777
sVRibonucleoside-triphosphate reductase (GTP) (flavodoxin)
p937
F0.982344293048125
sVMoaD sulfuration (nadh, assumed)
p938
F0.0
sVZinc (Zn+2) ABC transporter, efflux (periplasm)
p939
F0.9823718127269766
sV2-Acyl-sn-glycero-3-phosphoethanolamine (n-C14:0) transporter via facilitated diffusion (periplasm)
p940
F0.9823718127269803
sVPhosphopentomutase 2 (deoxyribose)
p941
F0.9823718127268654
sVRhamnulose-1-phosphate aldolase
p942
F0.9823718127269824
sVD-Xylose exchange
p943
F0.9823718127269764
sVSuccinylglutamic semialdehyde dehydrogenase
p944
F0.9823718127269755
sVSarcosine oxidase
p945
F0.9823718127269767
sVEnoyl-[acyl-carrier-protein] reductase (NADPH) (n-C10:0)
p946
F0.9823718127269858
sVDTDPglucose 4,6-dehydratase
p947
F0.9823718127269722
sVCytidine exchange
p948
F0.9823718127452477
sVGDP-4-oxo-L-fucose reductase
p949
F0.9823718127269799
sVUndecaprenyl diphosphate synthase
p950
F-1.0878285984656501e-30
sV3-hydroxycinnamic acid transport via diffusion (extracellular to periplasm)
p951
F0.982371812726974
sVEnoyl-[acyl-carrier-protein] reductase (NADH) (n-C16:0)
p952
F0.9823718127269858
sV2-acyl-glycerophospho-glycerol acyltransferase (n-C16:0)
p953
F0.9823718127269803
sVArsenate reductase
p954
F0.9823718127269682
sVSeryl-tRNA synthetase (selenocystein)
p955
F0.9823718127269755
sVL-Carnitine exchange
p956
F0.9823718127269776
sVMercury (Hg+2) transport out via proton antiport (periplasm)
p957
F0.9823718127269775
sVUracil transport via diffusion (extracellular to periplasm)
p958
F0.982371812726977
sVL-galactonate transport via proton symport (periplasm)
p959
F0.9823718127269782
sVD-Glucuronate exchange
p960
F0.9823718127276349
sV2-Acyl-sn-glycero-3-phosphoglycerol (n-C16:1) transporter via facilitated diffusion (periplasm)
p961
F0.9823718127269803
sVAcyl-phosphate:glycerol-3-phosphate acyltransferase (C12:0)
p962
F0.9823718127269832
sVGlutathione (ox) transport via diffusion (extracellular to periplasm)
p963
F0.9823718127269803
sVMaltose transport via PEP:Pyr PTS (periplasm)
p964
F0.9823718127269785
sV5'-nucleotidase (GMP)
p965
F0.9823718127269777
sVDimethyl sulfide exchange
p966
F0.9823718127452477
sVEthanesulfonate exchange
p967
F0.9823718127452477
sVAcyl-[acyl-carrier-protein] synthetase  (n-C18:0)
p968
F0.9823718127269764
sVAp4A hydrolase
p969
F0.9823718127269832
sVDiacylglycerol kinase (n-C18:0)
p970
F0.9823718127269802
sVChorismate mutase
p971
F0.0
sV5-dehydro-4-deoxyglucarate aldolase
p972
F0.9823718127269806
sVMannose 6-phosphate transport via diffusion (extracellular to periplasm)
p973
F0.9823718127269785
sVMethylisocitrate lyase
p974
F0.9823718127269785
sVArsenite efflux via ATP hydrolysis (periplasm)
p975
F0.9823718127269726
sVPantothenate transport via diffusion (extracellular to periplasm)
p976
F0.982371812726978
sVHexanoate transport via proton symport, reversible (periplasm)
p977
F0.9823718127269775
sVSUF [2Fe-2S] Transfer
p978
F0.9823718127269767
sVRhamanosyl-N-acetylglucosamyl-undecaprenyl diphosphate O-acetyltransferase (LPS O16 antigen biosynthesis)
p979
F0.9823718127269777
sVFMNH2-dependent monooxygenase
p980
F0.9823718127269746
sVUDP-D-glucuronate transport via diffusion (extracellular to periplasm)
p981
F0.9823718127269807
sVArsenite transport via diffusion (extracellular to periplasm)
p982
F0.9823718127269726
sVL-glutamine transport via diffusion (extracellular to periplasm)
p983
F0.9823718127269783
sVGalactokinase
p984
F0.9823718127269782
sVMolybdate exchange
p985
F0.0
sVD-xylose transport via ABC system (periplasm)
p986
F0.9823718127269766
sVD-carnitine transport via diffusion (extracellular to periplasm)
p987
F0.9823718127269816
sVLysyl-tRNA synthetase
p988
F0.9823718127269809
sV3-hydroxyacyl-CoA dehydrogenase (3-oxooctanoyl-CoA)
p989
F0.9720365831108303
sVLysophospholipase L2 (acyltransferase, 2-acyl-glycerophosphoethanolamine, n-C16:0)
p990
F0.9823718127269809
sVImidazoleglycerol-phosphate dehydratase
p991
F0.0
sVFatty-acid-CoA thioesterase (octadecanoate)
p992
F0.9823718127269873
sVSelenocysteine synthase
p993
F0.9823718127269767
sVMethionyl-tRNA synthetase
p994
F0.982371812726979
sVUDP-N-acetylenolpyruvoylglucosamine reductase
p995
F1.0878285984656501e-30
sVLactose exchange
p996
F0.9823718127269807
sVAlpha-amylase
p997
F0.9823718127269764
sVL-idonate 5-dehydrogenase
p998
F0.9823718127269806
sVBetaine-aldehyde dehydrogenase
p999
F0.9823718127269793
sVPhenylpropanoate exchange
p1000
F0.9823718127269758
sVD-galacturonate transport via diffusion (extracellular to periplasm)
p1001
F0.9823718127269782
sVCitrate transport out via proton antiport (periplasm)
p1002
F0.982371812726979
sVIron-sulfur cluster repair
p1003
F0.9823598826239368
sVGlycolate dehydrogenase (NADP)
p1004
F0.9823718127269792
sVIndole-3-glycerol-phosphate synthase
p1005
F0.0
sVFerric-dicitrate transport via ABC system (periplasm)
p1006
F0.9823718127269746
sVPhospholipase A1 (phosphatidylglycerol, n-C14:0) (periplasm)
p1007
F0.9823718127269816
sVGlutamate synthase (NADPH)
p1008
F0.9823718127269784
sVArbutin transport via PEP:Pyr PTS (periplasm)
p1009
F0.982371812726983
sVThiamine transport via diffusion (extracellular to periplasm)
p1010
F0.982371812726977
sVNADH dehydrogenase (ubiquinone-8 & 3 protons) (periplasm)
p1011
F0.9823718127269755
sVUDP-N-acetylglucosamine acyltransferase
p1012
F-1.0878285984656501e-30
sVPhospholipase A1 (phosphatidylethanolamine, n-C16:1) (periplasm)
p1013
F0.9823718127269816
sVL-fucose transport via diffusion (extracellular to periplasm)
p1014
F0.9823718127269746
sVO-succinylhomoserine lyase (L-cysteine)
p1015
F-1.8079885022412113e-15
sV2-Acyl-sn-glycero-3-phosphoethanolamine (n-C18:0) transporter via facilitated diffusion (periplasm)
p1016
F0.9823718127269803
sVDeoxyadenosine deaminase
p1017
F0.9823718127269802
sVChloride exchange
p1018
F0.0
sVGlycerol-3-phosphate dehydrogenase (NADP)
p1019
F0.0
sVShikimate kinase
p1020
F9.039942511206057e-16
sVNitrate reductase (Ubiquinol-8) (periplasm)
p1021
F0.9823718127269777
sVAcyl-phosphate:glycerol-3-phosphate acyltransferase (C18:1)
p1022
F0.9823718127269832
sVPsicoselysine exchange
p1023
F0.9823718127269758
sVCobinamide transport via ABC system (uptake, periplasm)
p1024
F0.9823718127269797
sVAcylphosphatase (C16:0)
p1025
F0.9823718127269832
sVGlycerophosphodiester phosphodiesterase (Glycerophosphoethanolamine)
p1026
F0.9823718127269799
sV5'-nucleotidase (IMP)
p1027
F0.9823718127269777
sVLysophospholipase L1 (2-acylglycerophosphoethanolamine, n-C12:0) (periplasm)
p1028
F0.9823718127269809
sVGuanosine-5'-triphosphate,3'-diphosphate diphosphatase
p1029
F0.9823718127254115
sVTryptophanase (L-tryptophan)
p1030
F0.9820823868022832
sVMagnesium (Mg+2) transport in/out via proton antiport (periplasm)
p1031
F0.982354139735376
sV3'-nucleotidase (AMP) (periplasm)
p1032
F0.9823718127269803
sVNickle (Ni+2) transport out via proton antiport (periplasm)
p1033
F0.982371812727596
sVPhosphoethanolamine KDO(2)-lipid (A) exchange
p1034
F0.9823718127452477
sVSodium transport out via proton antiport (cytoplasm to periplasm)
p1035
F0.9823718127269085
sVOctanoate (n-C8:0) exchange
p1036
F0.9823718127269746
sVNitric oxide dioxygenase
p1037
F0.9823718127269777
sVSuccinate transport via proton symport (2 H) (periplasm)
p1038
F0.9823718127269723
sVAlanyl-tRNA synthetase
p1039
F0.9823718127269725
sVDeoxycytidine deaminase
p1040
F0.9823718127336012
sV1-octadecanoyl-sn-glycerol 3-phosphate O-acyltransferase (n-C18:0)
p1041
F0.9823718127269785
sVTungstate exchange
p1042
F0.9823718127269764
sVSulfoaceate transport via diffusion (extracellular to periplasm)
p1043
F0.9823718127269722
sV3-hydroxyacyl-CoA dehydrogenase (3-oxooctadecanoyl-CoA), peroxisomal
p1044
F0.9823718127269738
sVGlycerol 2-phosphate phosphatase (periplasmic)
p1045
F0.9823718127269713
sV3-hydroxypropionate transport via proton symport (periplasm)
p1046
F0.9823718127269803
sVSulfoacetate exchange
p1047
F0.9823718127269764
sVFlavin reductase (NAD)
p1048
F0.9823718127269746
sVGlycine C-acetyltransferase
p1049
F0.9823718127269792
sVL-threonine efflux transport via proton antiport (periplasm)
p1050
F0.9823718127269752
sVL-lysine transport via ABC system (periplasm)
p1051
F0.9823718127269809
sV2-Acyl-sn-glycero-3-phosphoethanolamine (n-C12:0) transporter via facilitated diffusion (periplasm)
p1052
F0.9823718127269803
sVHydrogenase (Demethylmenaquinone-8: 2 protons) (periplasm)
p1053
F0.982371812727309
sVD-fructose transport via PEP:Pyr PTS (periplasm)
p1054
F0.9823718127269746
sVFe-enterobactin reduction (Fe(III)-unloading)
p1055
F0.9823718127269746
sVMaltotriose transport via ABC system (periplasm)
p1056
F0.9823718127269785
sVD-Amino acid dehydrogenase
p1057
F0.9823718127269802
sVPhosphatidylglycerol transport via ABC system (n-C16:1, periplasm)
p1058
F0.9823718127269889
sVPhosphoglucomutase
p1059
F0.9823718127269796
sVD-cysteine uptake via ABC system (periplasm)
p1060
F0.9823718127269782
sVSelenate reductase
p1061
F0.9823718127269767
sVGp4G hydrolase
p1062
F0.9823718127269799
sVN-Acetyl-D-glucosamine transport via PEP:Pyr PTS  (periplasm)
p1063
F0.982371812726976
sVAmmonia exchange
p1064
F-5.829164075703265e-15
sVD-serine deaminase
p1065
F0.9823718127269755
sVGlycerol-3-phosphate dehydrogenase (demethylmenaquinone-8)
p1066
F0.9823718127269789
sVTaurine transport via ABC system (periplasm)
p1067
F0.9823718127269722
sVDihydroorotase
p1068
F0.0
sVNitrious oxide transport (diffusion)
p1069
F0.9823718127249216
sVLysine decarboxylase
p1070
F0.9823718127269809
sV3-hydroxypropionate transport via diffusion (extracellular to periplasm)
p1071
F0.9823718127269803
sVPhosphatidylglycerophosphate transport via ABC system (n-C14:0, periplasm)
p1072
F0.9823718127269796
sVProline dehydrogenase
p1073
F0.9823718127269673
sVNucleoside-triphosphatase (XTP)
p1074
F0.9823718127269777
sVL-carnitine outward transport (H+ antiport)
p1075
F0.9823718127269816
sVHydroxyacylglutathione hydrolase
p1076
F0.9823718127269792
sVD-tartrate exchange
p1077
F0.9823718127269764
sVPhenethylamine exchange
p1078
F0.9823718127269746
sVRibonucleoside-diphosphate reductase (ADP)
p1079
F0.9823718127269824
sVSuccinylarginine dihydrolase
p1080
F0.9823718127269767
sVIron (+2) transport in via permease (no H+)
p1081
F0.9823554527098269
sVGlcNAc-anhMurNAc transport via diffusion (extracellular to periplasm)
p1082
F0.9823718127269774
sVSelenate transport via diffusion (extracellular to periplasm)
p1083
F0.9823718127269767
sVGDP transport via diffusion (extracellular to periplasm)
p1084
F0.9823718127268865
sVPhosphatidylglycerol synthase (n-C14:0)
p1085
F0.9823718127269796
sV2',3'-cyclic-nucleotide phosphodiesterase (GMP) (periplasm)
p1086
F0.9823718127269803
sVAcylphosphatase (C14:0)
p1087
F0.9823718127269832
sVKDO(2)-lipid IV A transport via ABC system (periplasm)
p1088
F0.0
sVL-alanyl-gamma-D-glutamyl-meso-diaminopimelate hydrolase
p1089
F0.9823718127269813
sVPurine-nucleoside phosphorylase (Deoxyguanosine)
p1090
F0.9823718127269796
sVCMP exchange
p1091
F0.9823718127269766
sVPhosphatidylglycerol phosphate phosphatase (periplasm, n-C14:0)
p1092
F0.9823718127269796
sVEnoyl-[acyl-carrier-protein] reductase (NADPH) (n-C4:0)
p1093
F0.9823718127269858
sVPhosphoribosyl-AMP cyclohydrolase
p1094
F-5.681617637366511e-31
sVO-Acetyl-L-serine transport via diffusion (extracellular to periplasm)
p1095
F0.9823718127269793
sVUridine exchange
p1096
F0.9823718127269764
sVEthanesulfonate transport via ABC system (periplasm)
p1097
F0.9823718127269875
sV2-acyl-glycerophospho-glycerol acyltransferase (n-C14:0)
p1098
F0.9823718127269803
sVPhospholipase A2 (phosphatidate, n-C14:1) (periplasm)
p1099
F0.9823718127269816
sVGlycerol-3-phosphate : phosphate antiporter (periplasm)
p1100
F0.9823718127269792
sVL-cysteine export via ABC system (cytoplasm to periplasm)
p1101
F0.9823718127269782
sVNucleoside-diphosphate kinase (ATP:dCDP)
p1102
F0.9823718127269759
sV3-deoxy-manno-octulosonate cytidylyltransferase
p1103
F-6.246738942511153e-31
sVN-acetyl-g-glutamyl-phosphate reductase
p1104
F-8.857128426807976e-17
sVAlanyl aminopeptidase (cys-gly)
p1105
F0.9823718127269774
sVXanthosine hydrolase
p1106
F0.9823718127269766
sVPhospho-L-threonine phosphatase (periplasmic)
p1107
F0.9823718127269796
sVFerrichrome transport via ABC system (periplasm)
p1108
F0.9823718127269746
sVInosine transport via diffusion (extracellular to periplasm)
p1109
F0.9823718127269814
sVDihydroneopterin triphosphate 2'-epimerase
p1110
F0.9823718127228137
sVOxidized glutathione exchange
p1111
F0.9823718127276349
sVDodecanoate (n-C12:0) exchange
p1112
F0.9823718127452477
sVMaltopentaose exchange
p1113
F0.9823718127269807
sVGlcNAc-anhMurNAc tripeptide transport in via proton symport (periplasm)
p1114
F0.9823718127269785
sVHydroxypyruvate reductase (NADH)
p1115
F0.9823718127269762
sVFerrichrome (minus Fe) secretion (to periplasm)
p1116
F0.9823718127269746
sVPhosphatidylglycerol transport via ABC system (n-C12:0, periplasm)
p1117
F0.9823718127269889
sVO2 exchange
p1118
F0.2415015570971799
sV2-Dehydro-L-gulonate reductase to gluconate (NADH)
p1119
F0.9823718127269803
sVNitric oxide exchange
p1120
F0.9823718127269775
sVDihydroxyacetone transport via facilitated diffusion (periplasm)
p1121
F0.9823718127269784
sVFatty-acid-CoA thioesterase (tetradecenoate)
p1122
F0.9823718127269873
sVPropanal transport via channel (periplasm)
p1123
F0.982371812726978
sV3-hydroxyacyl-CoA dehydratase (3-hydroxybutanoyl-CoA)
p1124
F0.9720365831108261
sVEnterobacterial common antigen (x4) core oligosaccharide lipid A transport via ABC system (periplasm to extracellular)
p1125
F0.9823718127269858
sVD-Galactonate exchange
p1126
F0.9823718127452477
sVL-methionine-R-sulfoxide reductase
p1127
F0.982371812726979
sVAcyl-(acyl carrier protein):phosphate acyltransferase (C12:0)
p1128
F0.9823718127269794
sVPhosphatidate transport via ABC system (n-C14:1, periplasm)
p1129
F0.9823718127269768
sVInosine exchange
p1130
F0.9823718127269754
sVN-Acetyl-D-glucosamine(anhydrous)N-Acetylmuramyl-tetrapeptide L,D-carboxypeptidase
p1131
F0.9823718127269785
sVEthanol reversible transport via diffusion (periplasm)
p1132
F0.9823718127269875
sVFatty-acid-CoA ligase (tetradecanoate transport via vectoral Co-A coupling)
p1133
F0.9823718127269873
sVN-methyltryptophan oxidase
p1134
F0.9823718127249216
sVAcyl-(acyl carrier protein):phosphate acyltransferase (C18:0)
p1135
F0.9823718127269794
sVD-mannose transport via PEP:Pyr PTS (periplasm)
p1136
F0.9823718127269785
sVD-Alanine transport via diffusion (extracellular to periplasm)
p1137
F0.9823718127269802
sVMurein D,D-carboxypeptidase (murein5p5p) (periplasm)
p1138
F0.98237181272698
sVArsenite exchange
p1139
F0.9823718127269738
sV2-Octaprenylphenol hydroxylase
p1140
F0.9823715855715258
sVLysophospholipase L2 (2-acylglycerophosphotidate, n-C16:0)
p1141
F0.9823718127269809
sVL-ascorbate transport via diffusion (extracellular to periplasm)
p1142
F0.9823718127269726
sVAcetyl-CoA C-acyltransferase (hexanoyl-CoA) (r)
p1143
F0.9720365831108307
sVPrephenate dehydrogenase
p1144
F0.0
sVN-acetylmuramate transport via diffusion (extracellular to periplasm)
p1145
F0.9823718127269774
sVN-Acetyl-D-glucosamine(anhydrous)N-Acetylmuramyl-tetrapeptide L,D-carboxypeptidase (periplasmic)
p1146
F0.9823718127269785
sVRibonucleoside-diphosphate reductase (GDP)
p1147
F0.9823718127269824
sVPyruvate formate lyase
p1148
F0.9823718127269889
sVDihydropteridine reductase (NADH)
p1149
F0.9823718127228137
sVAspartate carbamoyltransferase
p1150
F0.0
sVDUTP diphosphatase
p1151
F0.9822652099291433
sVNucleoside triphosphate pyrophosphorylase (xtp)
p1152
F0.9823718127269777
sVNADH dehydrogenase (demethylmenaquinone-8 & 0 protons)
p1153
F0.9823718127269767
sVHydroxyethylthiazole kinase
p1154
F0.9823718127269775
sVPhosphatidylglycerol transport via ABC system (n-C18:0, periplasm)
p1155
F0.9823718127269889
sVPhenethylacetaldehyde transport via diffusion (extracellular to periplasm)
p1156
F0.9823718127269768
sVEnoylglutaryl-[ACP] methyl ester reductase
p1157
F0.0
sVPhosphofructokinase
p1158
F0.9823718127269886
sVDeoxyuridine transport in via proton symport (periplasm)
p1159
F0.9823718127269854
sV3-aminoacrylate hydrolase
p1160
F0.9823718127269803
sVBeta-alanine transport via diffusion (extracellular to periplasm)
p1161
F0.9823718127269793
sVApolipoprotein N-acyltransferase (phosphatidylglycerol, periplasm)
p1162
F0.9823718127269725
sVTripeptide (LalaDgluMdap) transport via ABC system (periplasm)
p1163
F0.9823718127269759
sVTungsten bispterin guanine dinucleotide synthase
p1164
F0.9823718127269773
sVSink needed to allow 5'-deoxyribose to leave system
p1165
F0.0
sVGlycolate oxidase
p1166
F0.9823718127269792
sVPhospholipase A2 (phosphatidate, n-C16:1) (periplasm)
p1167
F0.9823718127269816
sVL-Xylulose exchange
p1168
F0.9823718127269764
sVEthanolamine ammonia-lyase
p1169
F0.9823718127269875
sV2-Octaprenyl-3-methyl-6-methoxy-1,4-benzoquinol hydroxylase (anaerobic)
p1170
F0.9823718127269789
sVAnhydrous-N-Acetylmuramyl-tetrapeptide amidase
p1171
F0.9823718127269725
sV1-deoxy-D-xylulose reductoisomerase
p1172
F0.0
sVCMP nucleosidase
p1173
F0.9823718127269785
sVFMN adenylyltransferase
p1174
F0.0
sVAcetoacetate transport via diffusion (extracellular to periplasm)
p1175
F0.9823718127269766
sVQuinate transport (periplasm)
p1176
F0.9823718127269754
sVGlycerol-3-phosphatase
p1177
F0.9823718127269789
sVN-acetyl-D-galactosamine 1-phosphatase (periplasm)
p1178
F0.982371812726976
sVPhosphate transport via ABC system (uptake, periplasm)
p1179
F0.9823718127269816
sVMurein D,D-carboxypeptidase (murein5p3p) (periplasm)
p1180
F0.98237181272698
sVOctadecenoate (n-C18:1) exchange
p1181
F0.9823718127269746
sVSulfate adenyltransferase
p1182
F-4.76893087575103e-16
sVMaltoseMaltotriose transport via diffusion (extracellular to periplasm) irreversible
p1183
F0.9823718127269785
sV5'-nucleotidase (UMP)
p1184
F0.9823718127269777
sVGlucose transport via diffusion (extracellular to periplasm)
p1185
F0.9823718127269804
sV(enterobacterial common antigen)x4 core oligosaccharide lipid A exchange
p1186
F0.9823718127452477
sVDihydrofolate reductase
p1187
F3.0006868388591497e-16
sVThiosulfate transport via diffusion (extracellular to periplasm)
p1188
F0.9823718127269826
sV1-deoxy-D-xylulose 5-phosphate synthase
p1189
F0.0
sVNucleoside-diphosphate kinase (ATP:dUDP)
p1190
F0.9823718127269759
sVD-Mannose exchange
p1191
F0.9823718127269807
sVPhospholipase A2 (phosphatidylethanolamine, n-C14:0) (periplasm)
p1192
F0.9823718127269816
sVTungsten bispterin guanine dinucleotide synthase (single GDP)
p1193
F0.9823718127269773
sVDimethyl sulfoxide transport via diffusion (extracellular to periplasm)
p1194
F0.9823718127269773
sVAconitate isomerase (spontaneous)
p1195
F0.9823718127269775
sVThiol:disulfide reductase (DsbC)
p1196
F0.9823718127269773
sVMelibiose transport in via antiport (periplasm)
p1197
F0.9823718127269794
sVGlutamyl-tRNA reductase
p1198
F5.796772964460965e-14
sVPhospholipase A1 (phosphatidylglycerol, n-C12:0) (periplasm)
p1199
F0.9823718127269816
sVSuccinate:aspartate antiporter (periplasm)
p1200
F0.9823718127269723
sV3-deoxy-manno-octulosonate-8-phosphatase
p1201
F-6.246738942511153e-31
sVMyo-inositol 1-phosphatase
p1202
F0.9823718127269826
sVAmylomaltase (maltohexaose)
p1203
F0.9823718127269725
sVTryptophanyl-tRNA synthetase
p1204
F0.9823718127269826
sVAcyl-phosphate:glycerol-3-phosphate acyltransferase (C18:0)
p1205
F0.9823718127269832
sVCronobetaine outward transport (H+ antiport)
p1206
F0.9823718127269765
sVGuanosine kinase
p1207
F0.9823718127269803
sVL-Serine exchange
p1208
F0.9823718127269758
sV3-dehydroquinate dehydratase, irreversible
p1209
F-7.638029407688554e-17
sVPhosphatidate phosphatase (periplasmic, n-C18:0)
p1210
F0.9823718127269696
sVNAD synthase (nh3)
p1211
F1.0494582047101653e-13
sVD-tartrate transport via diffusion (extracellular to periplasm)
p1212
F0.9823718127269722
sVN-acetylmuramate transport via PEP:Pyr PTS (periplasm)
p1213
F0.9823718127269774
sV3-deoxy-D-arabino-heptulosonate 7-phosphate synthetase
p1214
F-5.92284793493734e-17
sVGlutamate-1-semialdehyde aminotransferase
p1215
F-8.731078095094352e-16
sVADPribose diphosphatase
p1216
F0.9823718127269797
sVCopper transport out via proton antiport
p1217
F0.9823718127269782
sVGlycolaldehyde dehydrogenase
p1218
F1.1857816312967987e-16
sVDihydroneopterin epimerase
p1219
F0.9823718127269789
sVPhytase (periplasm)
p1220
F0.9823718127269794
sVNucleoside triphosphate pyrophosphorylase (ditp)
p1221
F0.9823718127269777
sVUracil exchange
p1222
F0.9823718127269764
sVSpermidine exchange
p1223
F0.9823718127269764
sVAllantoin transport via diffusion (extracellular to periplasm)
p1224
F0.9823718127269725
sVSuccinylglutamate desuccinylase
p1225
F0.9823718127269755
sVSorbitol-6-phosphate dehydrogenase
p1226
F0.9823718127269767
sVAcetaldehyde reversible transport (periplasm)
p1227
F0.9823718127269766
sVMethionine adenosyltransferase
p1228
F-6.100765176532112e-16
sVL-Asparagine exchange
p1229
F0.9823718127269738
sVGlucose-6-phosphate transport via phosphate antiport (periplasm)
p1230
F0.9823718127269782
sVEnoyl-[acyl-carrier-protein] reductase (NADH) (n-C6:0)
p1231
F0.9823718127269858
sVD-Alanine exchange
p1232
F0.9823718127269738
sVThymidine transport via diffusion (extracellular to periplasm)
p1233
F0.982371812726977
sVNitrate transport in via nitrite antiport (periplasm)
p1234
F0.9823718127269777
sVL-methionine transport via diffusion (extracellular to periplasm)
p1235
F0.982371812726979
sVPhospho-L-tyrosine phosphatase (periplasmic)
p1236
F0.9823718127269826
sVL-threonine deaminase
p1237
F2.3307019486508247e-16
sVL-alanyl-gamma-glutamate epimerase
p1238
F0.9823718127269789
sVLysophospholipase L2 (2-acylglycerophosphotidate, n-C14:0)
p1239
F0.9823718127269809
sVL-ascorbate transport via PEP:Pyr PTS (periplasm)
p1240
F0.9823718127269726
sV2,3-dihydroxybenzoate adenylate synthase
p1241
F0.9823718127269784
sVTetrapeptide L,D-carboxypeptidase (periplasm)
p1242
F0.9823718127269759
sVDihydroneopterin triphosphate pyrophosphatase
p1243
F0.0
sVL-Lyxose transport via proton symport (periplasm)
p1244
F0.9823718127269809
sVMethanol reversible transport via diffusion (periplasm)
p1245
F-3.645213301392104e-16
sVMagnesium (Mg+2) transport via diffusion (extracellular to periplasm)
p1246
F0.0
sVDUMP transport via diffusion (extracellular to periplasm)
p1247
F0.9823718127269854
sVGuanylate cyclase
p1248
F0.9823718127254115
sVCu+ exchange
p1249
F0.9823718127269776
sVAldose reductase (methylglyoxal)
p1250
F0.9823718127269725
sVPhosphatidylglycerol synthase (n-C14:1)
p1251
F0.9823718127269796
sVHydrogenase (ubiquinone-8: 2 protons) (periplasm)
p1252
F0.982371812727309
sVAspartate 1-decarboxylase
p1253
F0.0
sVFormate-tetrahydrofolate ligase
p1254
F0.9823718127269746
sVSn-glycerol-3-phosphoserine transport via ABC system (periplasm)
p1255
F0.9823718127269789
sV5'-nucleotidase (dTMP)
p1256
F0.9823718127269777
sVUDP-N-acetylglucosamine 2-epimerase
p1257
F0.9823718127269799
sV6-phosphogluconate dehydratase
p1258
F0.9823718127269719
sVAcylphosphatase (C18:1)
p1259
F0.9823718127269832
sVLactoylglutathione lyase
p1260
F0.9823718127269806
sVNa+/glutamate symport (periplasm)
p1261
F0.9823718127269792
sV8-amino-7-oxononanoate synthase
p1262
F0.0
sVCyclopropane fatty acid synthase (Phosphatidylethanolamine, n-C18:0)
p1263
F0.9823718127269798
sV(S)-Propane-1,2-diol facilitated transport (periplasm)
p1264
F0.9823718127269803
sVE. coli biomass objective function (iJO1366) - core - with 53.95 GAM estimate
p1265
F0.0
sVNicotinate exchange
p1266
F0.982371812726975
sVNi2+ exchange
p1267
F0.0
sVLysophospholipase L2 (2-acylglycerophosphotidate, n-C12:0)
p1268
F0.9823718127269809
sVPhosphoribosylaminoimidazole carboxylase (mutase rxn)
p1269
F-1.20027473554366e-15
sVGamma-butyrobetaine exchange
p1270
F0.9823718127452477
sVPhosphoribosylaminoimidazole carboxylase
p1271
F-1.20027473554366e-15
sVFe2+ exchange
p1272
F0.9822884318510947
sVD-Lactaldehyde:NAD+ 1-oxidoreductase
p1273
F0.9823718127269813
sVTetradecanoate (n-C14:0) exchange
p1274
F0.9823718127269764
sVL-idonate transport via diffusion (extracellular to periplasm)
p1275
F0.9823718127269806
sVMalic enzyme (NADP)
p1276
F0.98237181272698
sVN-Acetyl-D-mannosamine exchange
p1277
F0.9823718127269738
sVD-Fructuronate exchange
p1278
F0.9823718127452477
sVPhosphatidylserine syntase (n-C14:1)
p1279
F0.9823718127269768
sVAcetoacetate exchange
p1280
F0.9823718127269738
sVHypoxanthine phosphoribosyltransferase (Hypoxanthine)
p1281
F0.982371812727309
sVL-carnitine/D-carnitine antiporter (periplasm)
p1282
F0.9823718127269816
sVTrimethylamine transport via diffusion (extracellular to periplasm)
p1283
F0.9823718127269779
sVGlucuronate 1-phosphate phosphatase (periplasm)
p1284
F0.9823718127254115
sVRibulose 5-phosphate 3-epimerase
p1285
F0.9774237108265245
sVGlycerol 2-phosphate exchange
p1286
F0.9823718127276349
sVNucleoside triphosphate pyrophosphorylase (utp)
p1287
F0.9823718127269777
sVPyridoxine 5'-phosphate oxidase
p1288
F0.982371812726969
sV3-hydroxyacyl-[acyl-carrier-protein] dehydratase (n-C6:0)
p1289
F0.9823718127269803
sVCob(I)alamin adenosyltransferase
p1290
F0.9823718127269797
sVFormaldehyde exchange
p1291
F0.9823718127452477
sVSilver transport out via proton antiport
p1292
F0.9823718127269786
sV4-Hydroxy-L-threonine synthase
p1293
F0.9823718127269759
sVNucleoside triphosphate pyrophosphorylase (itp)
p1294
F0.9823718127269777
sVUrea transport via facilitate diffusion (periplasm)
p1295
F0.982371812726977
sVDeoxyguanosine transport in via proton symport (periplasm)
p1296
F0.9823718127349288
sVNovobiocin transport via TolC system
p1297
F0.9823718127269777
sVAcyl-(acyl carrier protein):phosphate acyltransferase (C18:1)
p1298
F0.9823718127269794
sV3UMP transport via diffusion (extracellular to periplasm)
p1299
F0.9823718127269759
sVMeso-2,6-Diaminoheptanedioate transport via diffusion (extracellular to periplasm)
p1300
F0.9823718127269803
sVGlycine betaine exchange
p1301
F0.9823718127276349
sVRhamnosyltransferase I (LPS core biosynthesis)
p1302
F0.9823718127269822
sVH2s transport (periplasm)
p1303
F0.9823718127269764
sVArgininosuccinate synthase
p1304
F0.0
sVCysteine synthase
p1305
F3.1443616590274475e-17
sVCoprogen transport via ton system (extracellular)
p1306
F0.9823718127269837
sVGlutamate Decarboxylase
p1307
F0.9823718127269783
sVS-Methyl-L-methionine exchange
p1308
F0.9823718127269727
sVD-gluconate transport via proton symport, reversible (periplasm)
p1309
F0.9823718127269806
sV2-methylcitrate dehydratase
p1310
F0.9823718127269785
sVPyridoxal transport via diffusion (extracellular)
p1311
F0.9823718127269796
sVAcyl-(acyl carrier protein):phosphate acyltransferase (C14:0)
p1312
F0.9823718127269794
sVAllulose 6-phosphate epimerase
p1313
F0.9823718127269725
sVQuinate transport via diffusion (extracellular to periplasm)
p1314
F0.9823718127269754
sV3',5'-bisphosphate nucleotidase
p1315
F-6.80457507591603e-17
sVMinocycline transport via TolC system
p1316
F0.9823718127269826
sVRibose-1,5-bisphosphokinase
p1317
F0.9823718127269756
sVMaltodextrin glucosidase (maltotriose)
p1318
F0.9823718127269826
sVTrimethylamine exchange
p1319
F0.9823718127269764
sVL-arabinose transport via ABC system (periplasm)
p1320
F0.982371812726983
sVPyridoxamine 5'-phosphate oxidase
p1321
F0.9823718127269796
sVCyclopropane fatty acid synthase (Phosphatidylethanolamine, n-C16:0)
p1322
F0.9823718127269798
sVRifampin transport via diffusion (extracellular to periplasm)
p1323
F0.9823718127269822
sVHistidinol-phosphatase
p1324
F4.991606303541029e-16
sVGlycogen synthase (ADPGlc)
p1325
F0.9823718127269806
sVPhosphatidylserine decarboxylase (n-C14:1)
p1326
F0.9823718127269827
sVFatty-acid-CoA ligase (hexadecanoate transport via vectoral Co-A coupling)
p1327
F0.9823718127269873
sV1-(5-phosphoribosyl)-5-[(5-phosphoribosylamino)methylideneamino)imidazole-4-carboxamide isomerase
p1328
F-5.681617637366511e-31
sVAdenylosuccinate synthase
p1329
F-8.585718743596597e-15
sVGlutamate 5-kinase
p1330
F0.9814719407360838
sVSink needed to allow (2R,4S)-2-methyl-2,3,3,4-tetrahydroxytetrahydrofuran to leave system
p1331
F-9.676120175754916e-16
sVD-Malate transport via diffusion (extracellular to periplasm)
p1332
F0.9823718127269785
sVSerine O-acetyltransferase
p1333
F9.039942511206057e-16
sV3-hydroxycinnamic acid transport via proton symport, reversible (periplasm)
p1334
F0.982371812726974
sVLysophospholipase L1 (2-acylglycerophosphotidate, n-C16:0) (periplasm)
p1335
F0.9823718127269809
sVD-galactose transport via ABC system (periplasm)
p1336
F0.9823718127269782
sVL-carnitine transport via ABC system (periplasm)
p1337
F0.9823718127269816
sVSuccinate exchange
p1338
F0.9823718127269764
sVDimethyl sulfoxide reductase (Demethylmenaquinol 8) (periplasm)
p1339
F0.9823718127269773
sVLysophospholipase L1 (2-acylglycerophosphotidate, n-C18:1) (periplasm)
p1340
F0.9823718127269809
sVTrimethylamine N-oxide exchange
p1341
F0.9823718127269764
sVD-cysteine transport via diffusion (extracellular to periplasm)
p1342
F0.9823718127269782
sVAlpha-ribazole 5-phosphate phosphatase
p1343
F0.9823718127269767
sVMalate transport via proton symport (2 H) (periplasm)
p1344
F0.9823718127269785
sVPropionate exchange
p1345
F0.9823718127269758
sVPhosphatidylglycerol synthase (n-C16:0)
p1346
F0.9823718127269796
sVL-methionine R-oxide transport via ABC system (periplasm)
p1347
F0.982371812726979
sVAlcohol dehydrogenase (glycerol)
p1348
F0.9823718127269725
sVSn-Glycero-3-phosphocholine exchange
p1349
F0.9823718127452477
sVNADH dehydrogenase (demethylmenaquinone-8 & 3 protons) (periplasm)
p1350
F0.9823718127269767
sVPhosphoribosylaminoimidazolecarboxamide formyltransferase
p1351
F-1.20027473554366e-15
sVCobalt transport in via permease (no H+)
p1352
F0.0
sV3-deoxy-D-manno-octulosonic acid transferase
p1353
F2.8531636118039957e-15
sVOctanoate non-lipoylated apo domain ligase
p1354
F0.982371812726981
sVPhenylalanyl-tRNA synthetase
p1355
F0.9823718127269794
sVD-mannonate hydrolyase
p1356
F0.9823718127269826
sVSuperoxide dismutase
p1357
F0.9823718127269723
sVFe(III)hydroxamate exchange
p1358
F0.9823718127452477
sVLysophospholipase L1 (2-acylglycerophosphoglycerol, n-C14:1) (periplasm)
p1359
F0.9823718127269809
sVCobinamide transport via ton system (extermal)
p1360
F0.9823718127269797
sVL-cysteine export via facilitated transport
p1361
F0.9823718127269782
sVPhospholipase A1 (phosphatidylethanolamine, n-C18:1) (periplasm)
p1362
F0.9823718127269816
sVGlycine hydroxymethyltransferase, reversible
p1363
F0.9683593276136216
sVO16 antigen (x4) core oligosaccharide lipid A transport via ABC system (periplasm to extracellular)
p1364
F0.9823718127269777
sVAlpha,alpha-trehalose-phosphate synthase (UDP-forming)
p1365
F0.9823718127269826
sV3CMP transport via diffusion (extracellular to periplasm)
p1366
F0.9823718127269803
sVGlycerol-3-phosphate dehydrogenase (ubiquinone-8)
p1367
F0.9823718127269789
sVPhosphatidate phosphatase (periplasmic, n-C14:0)
p1368
F0.9823718127269696
sV2',3'-cyclic-nucleotide phosphodiesterase (UMP) (periplasm)
p1369
F0.9823718127269803
sVL-valine reversible transport via proton symport (periplasm)
p1370
F0.9823718127269768
sV2C-methyl-D-erythritol 2,4 cyclodiphosphate dehydratase
p1371
F1.0345215261109968e-15
sVPhosphatidate phosphatase (periplasmic, n-C18:1)
p1372
F0.9823718127269696
sVMethylmalonyl-CoA decarboxylase
p1373
F0.9823718127269826
sVSulfite reductase (NADPH2)
p1374
F-4.4401938939842e-15
sV3AMP transport via diffusion (extracellular to periplasm)
p1375
F0.9823718127269803
sVN-acetylmuramate 6-phosphate hydrolase
p1376
F0.9823718127269774
sVDimethylallyltranstransferase
p1377
F0.0
sV2-Acyl-sn-glycero-3-phosphoethanolamine (n-C14:1) transporter via facilitated diffusion (periplasm)
p1378
F0.9823718127269803
sVPyridoxine exchange
p1379
F0.9823718127269758
sVS-ribosylhomocysteine cleavage enzyme
p1380
F0.0
sVPhosphoglycerate dehydrogenase
p1381
F0.9606659976734271
sVUracil transport in via proton symport (periplasm)
p1382
F0.982371812726977
sVGlyceraldehyde transport via diffusion (extracellular to periplasm)
p1383
F0.9823718127269792
sVFerrichrome exchange
p1384
F0.9823718127452477
sVD-Ribose exchange
p1385
F0.9823718127269758
sVOxaloacetate decarboxylase
p1386
F0.9823718127269847
sVAldose-1-epimerase
p1387
F0.9823718127269782
sVS-Formylglutathione hydralase
p1388
F0.9823718127269755
sVNucleoside triphosphate pyrophosphorylase (datp)
p1389
F0.9823718127269777
sVPyruvate reversible transport via proton symport (periplasm)
p1390
F0.9823718127269754
sVAMP transport via diffusion (extracellular to periplasm)
p1391
F0.9823718127269774
sVGlycerophosphodiester phosphodiesterase (Glycerophosphoserine)
p1392
F0.9823718127269799
sVArginine/ornithine antiporter (periplasm)
p1393
F0.982371812726983
sV3-dehydroquinate synthase
p1394
F-7.638029407688554e-17
sVEthanol exchange
p1395
F0.9823718127452477
sV2-Octaprenyl-3-methyl-6-methoxy-1,4-benzoquinol hydroxylase
p1396
F0.9823718127269789
sVTagaturonate reductase
p1397
F0.982371812726972
sVAllose kinase
p1398
F0.9823718127269725
sVIsethionate transport via ABC system (periplasm)
p1399
F0.9823718127269839
sVSn-Glycero-3-phospho-1-inositol exchange
p1400
F0.9823718127452477
sVD-carnitine exchange
p1401
F0.9823718127269776
sVEnoyl-[acyl-carrier-protein] reductase (NADPH) (n-C8:0)
p1402
F0.9823718127269858
sVDGMP exchange
p1403
F0.9823718127452477
sVFormaldehyde transport via diffusion (extracellular to periplasm)
p1404
F0.9823718127269873
sVTrans-aconitate methyltransferase
p1405
F0.9823718127269775
sVPimeloyl-[ACP] methyl ester esterase
p1406
F1.2292591494388105e-10
sVThiocyanate transport via diffusion (extracellular to periplasm)
p1407
F0.9823718127269722
sVPropanoyl-CoA: succinate CoA-transferase
p1408
F0.9823718127268654
sVLysophospholipase L2 (2-acylglycerophosphotidate, n-C14:1)
p1409
F0.9823718127269809
sVL-serine transport via diffusion (extracellular to periplasm)
p1410
F0.9823718127269755
sV3-hydroxyacyl-CoA dehydratase (3-hydroxydodecanoyl-CoA)
p1411
F0.9776728488265729
sVATP synthase (four protons for one ATP) (periplasm)
p1412
F0.40247730149072264
sVPurine-nucleoside phosphorylase (Guanosine)
p1413
F0.9823718127269796
sVPurine-nucleoside phosphorylase (Xanthosine)
p1414
F0.9823718127269796
sVDeoxycytidine exchange
p1415
F0.9823718127452477
sVCardiolipin synthase (periplasmic, n-C18:1)
p1416
F0.982371812726979
sVIsoleucine transaminase
p1417
F0.0
sV2,3-diaminopropionate transport via diffusion
p1418
F0.9823718127269803
sVGlutamine-fructose-6-phosphate transaminase
p1419
F-5.931262858969932e-12
sVFusidic acid exchange
p1420
F0.9823718127452477
sVCytidine transport via diffusion (extracellular to periplasm)
p1421
F0.9823718127269802
sVAcyl-CoA dehydrogenase (hexanoyl-CoA)
p1422
F0.9720365831108327
sVGMP synthase
p1423
F4.926611614723027e-16
sVCob(I)alamin exchange
p1424
F0.9823718127269743
sVN-Acetylneuraminate exchange
p1425
F0.9823718127269738
sVGlucuronate isomerase (D-galacturonate)
p1426
F0.9823718127254115
sVHeme O synthase
p1427
F0.9823718127269775
sVH+ exchange
p1428
F0.9823718127270838
sVGlyoxalase III
p1429
F0.9823718127269792
sVL-tyrosine reversible transport via proton symport (periplasm)
p1430
F0.9823718127269827
sVAcylphosphatase (C18:0)
p1431
F0.9823718127269832
sVHexanoate transport via diffusion (extracellular to periplasm)
p1432
F0.982371812727309
sVHexokinase (D-mannose:ATP)
p1433
F0.9823718127269775
sVDihydroxy-acid dehydratase (2,3-dihydroxy-3-methylpentanoate)
p1434
F5.6428559631795045e-18
sVThioredoxin reductase (NADPH)
p1435
F0.9823718127269826
sVFatty-acid-CoA ligase (hexanoate transport via vectoral Co-A coupling)
p1436
F0.9823718127269873
sVHydrogen sulfide exchange
p1437
F0.9823718127269754
sVMannitol transport via diffusion (extracellular to periplasm)
p1438
F0.9823718127269826
sVN-Acetyl-D-glucosamine(anhydrous)N-Acetylmuramyl-tripeptide amidase (periplasm)
p1439
F0.9823718127269785
sVDoxorubicin transport via TolC system
p1440
F0.9823718127269775
sVD-Glucosamine exchange
p1441
F0.9823718127452477
sVOctadecanoate (n-C18:0) exchange
p1442
F0.9823718127269746
sVMaltotetraose exchange
p1443
F0.9823718127269807
sVAcyl-carrier protein synthase
p1444
F0.9823718127269794
sVAgmatinase
p1445
F0.9823718127269785
sVADP-D-glycero-D-manno-heptose epimerase
p1446
F0.9823718127269785
sVFe(III) hydroxamate Fe-loading reaction (spontaneaous)
p1447
F0.9823718127269746
sVBis-molybdenum cofactor synthase
p1448
F0.0
sVDihydroxyphenylacetaldehyde transport via diffusion (extracellular to periplasm)
p1449
F0.9823718127269803
sVHexadecenoate transport via facilitated irreversible diffusion (extracellular to periplasm)
p1450
F0.9823718127269775
sV5-amino-6-(5-phosphoribosylamino)uracil reductase
p1451
F0.0
sVPhosphatidylglycerophosphate transport via ABC system (n-C18:1, periplasm)
p1452
F0.9823718127269796
sVTrehalose transport via diffusion (extracellular to periplasm)
p1453
F0.9823718127269826
sVXylulokinase
p1454
F0.9823718127269766
sVLysophospholipase L1 (2-acylglycerophosphoglycerol, n-C16:1) (periplasm)
p1455
F0.9823718127269809
sVNitrite Reductase (Ubiquinole-8, periplasm)
p1456
F0.9823718127269777
sVManganese (Mn+2) transport out via proton antiport (periplasm)
p1457
F0.9823718127269826
sVAcyl-CoA dehydrogenase (decanoyl-CoA)
p1458
F0.9759564918307485
sVLyxose isomerase
p1459
F0.9823718127269809
sV5-Methylthio-D-ribose transport via proton symport (periplasm)
p1460
F0.9823718127269743
sVCholine transport via ABC system (periplasm)
p1461
F0.9823718127269798
sVPhosphatidylserine syntase (n-C14:0)
p1462
F0.9823718127269768
sV3-hydroxyacyl-CoA dehydratase (3-hydroxyoctanoyl-CoA)
p1463
F0.9720365831108261
sVPhospholipase A2 (phosphatidylethanolamine, n-C14:1) (periplasm)
p1464
F0.9823718127269816
sVGlutamine phosphoribosyldiphosphate amidotransferase
p1465
F1.6394658491503056e-15
sVO16 anitgen (x4) ligase (periplasm)
p1466
F0.9823718127269777
sVISC [2Fe-2S] regeneration
p1467
F0.9823718045782313
sVFerroxamine (minus Fe3) secretion (to extracellular)
p1468
F0.9823718127269746
sVEnoyl-[acyl-carrier-protein] reductase (NADPH) (n-C6:0)
p1469
F0.9823718127269858
sVPhosphoribosylglycinamide formyltransferase
p1470
F0.9808359597904199
sVPhenylpropanoate Dioxygenase
p1471
F0.9823718127269765
sVFerroxamine Fe3-loading reaction (spontaneous)
p1472
F0.9823718127269746
sVCinnamate dioxygenase
p1473
F0.982371812726979
sVThymine transport out via proton antiport (periplasm)
p1474
F0.9823718127269752
sVCytosine deaminase
p1475
F0.9823718127269765
sVFatty-acid-CoA thioesterase (octadecenoate)
p1476
F0.9823718127269873
sVTryptophan synthase (indoleglycerol phosphate)
p1477
F0.9820823868022832
sVButyrate (n-C4:0) exchange
p1478
F0.9823718127269738
sVDeoxycytidine transport in via proton symport (periplasm)
p1479
F0.9823718127336012
sVShikimate transport via diffusion (extracellular to periplasm)
p1480
F0.9823718127270209
sVATP amine hydrolysis (spontaneous)
p1481
F0.9823718127269682
sVUDP-3-O-acetylglucosamine deacetylase
p1482
F-2.0272946783023625e-30
sVMurein L,D-carboxypeptidase (murein4p3p) (periplasm)
p1483
F0.9823718127269826
sVGlycolate transport via diffusion (extracellular to periplasm)
p1484
F0.9823718127269792
sV2-oxopent-4-enoate hydratase
p1485
F0.9823718127269794
sVDAMP exchange
p1486
F0.9823718127452477
sVThDP adenylyl transferase
p1487
F0.9823718127269827
sVPhosphatidylserine syntase (n-C16:0)
p1488
F0.0
sVPyrimidine phosphatase
p1489
F1.61324332586001e-16
sVAcyl-(acyl carrier protein):phosphate acyltransferase (C14:1)
p1490
F0.9823718127269794
sVL-serine reversible transport via proton symport (periplasm)
p1491
F0.9823718127269755
sV4-aminobutyrate transport in via proton symport (periplasm)
p1492
F0.9823718127269764
sVUrea transport via diffusion (extracellular to periplasm)
p1493
F0.982371812726977
sVD-glycero-D-manno-heptose 7-phosphate kinase
p1494
F0.9823718127269792
sVHeptosyltransferase IV (LPS core synthesis)
p1495
F0.9823718127269775
sVPolyphosphate kinase
p1496
F0.9683007850327111
sVAcetyl-CoA C-acetyltransferase
p1497
F0.9720365831108307
sVFormyl-CoA Transferase
p1498
F0.9823718127269746
sVDihydroxy-acid dehydratase (2,3-dihydroxy-3-methylbutanoate)
p1499
F9.61492245441457e-16
sVAconitase (half-reaction A, Citrate hydro-lyase)
p1500
F7.500918134167784e-16
sVH2s transport via diffusion (extracellular to periplasm)
p1501
F0.9823718127269764
sVHydrogen peroxide reductase (thioredoxin)
p1502
F0.982371812726977
sVB-galactosidase
p1503
F0.9823718127269813
sVSodium proton antiporter (H:NA is 1.5) (periplasm)
p1504
F0.9823718127269085
sVHydroxypyruvate isomerase
p1505
F0.9823718127269762
sVCobinamide adenyltransferase
p1506
F0.9823718127269797
sVThiosulfate exchange
p1507
F0.9823718127269764
sVMalonyl-CoA methyltransferase
p1508
F0.0
sVL-lactate reversible transport via proton symport (periplasm)
p1509
F0.9823718127269813
sV3-hydroxyacyl-[acyl-carrier-protein] dehydratase (n-C4:0)
p1510
F0.9823718127269803
sVCoprogen exchange
p1511
F0.9823718127269776
sVD-glucose O-acetyltransferase
p1512
F0.9823718127269806
sVAcylphosphatase (C12:0)
p1513
F0.9823718127269832
sVPhosphoribosylglycinamide synthase
p1514
F3.658245927058202e-15
sVFatty acid (dodecanoate) transport via facilitated irreversible diffusion (extracellular to periplasm)
p1515
F0.9823718127336012
sVL-Galactonate exchange
p1516
F0.9823718127452477
sVArginine/agmatine antiport (periplasm)
p1517
F0.982371812726983
sVUDPglucose exchange
p1518
F0.9823718127269764
sVPeroxyaminoacrylate reductase
p1519
F0.982371812726978
sVL-serine via sodium symport (periplasm)
p1520
F0.9823718127269755
sVSucrose transport via PEP:Pyr  (periplasm)
p1521
F0.9823718127269722
sVMannose-6-phosphate transport via phosphate antiport (periplasm)
p1522
F0.9823718127269785
sVEnterobacterial common antigen transferase (flippase, cytoplasm to periplasm)
p1523
F0.9823718127269858
sVAcetyl-CoA ACP transacylase
p1524
F0.9823718127269776
sVPhosphatidylglycerol synthase (n-C16:1)
p1525
F0.9823718127269796
sVD-cysteine desulfhydrase
p1526
F0.9823718127269782
sVPhosphatidate transport via ABC system (n-C18:0, periplasm)
p1527
F0.9823718127269768
sVD-galacturonate transport via proton symport, reversible (periplasm)
p1528
F0.9823718127269782
sVDeoxyguanylate kinase (dGMP:ATP)
p1529
F0.9823718127349288
sVD-glycero-D-manno-heptose 1,7-bisphosphate phosphatase
p1530
F0.9823718127269792
sVMaltopentaoseMaltotriose transport via diffusion (extracellular to periplasm) irreversible
p1531
F0.9823718127269785
sVD-Mannitol exchange
p1532
F0.9823718127269756
sV2-Acyl-sn-glycero-3-phosphatidate (n-C16:0) transporter via facilitated diffusion (periplasm)
p1533
F0.9823718127269803
sVL-Threonine O-3-phosphate exchange
p1534
F0.9823718127269764
sVL-idonate transport via proton symport, reversible (periplasm)
p1535
F0.9823718127269806
sVQuinate dehydrogenase
p1536
F0.9823718127269754
sVMelibiose transport in via symport (periplasm)
p1537
F0.9823718127269794
sVNitrite transport in via proton symport, reversible (periplasm)
p1538
F0.9823718127269777
sVCyanate aminohydrolase
p1539
F0.9823718127269782
sV2-Acyl-sn-glycero-3-phosphatidate (n-C18:1) transporter via facilitated diffusion (periplasm)
p1540
F0.9823718127269803
sV2-O-alpha-mannosyl-6-phosphate-D-glycerate hydrolase
p1541
F0.9823718127269785
sVMurein L,D-carboxypeptidase (murein4p4p) (periplasm)
p1542
F0.9823718127269826
sVNMN exchange
p1543
F0.9823718127269775
sVMaltodextrin phosphorylase (maltoheptaose)
p1544
F0.9823718127269826
sVPhosphatidate phosphatase (periplasmic, n-C14:1)
p1545
F0.9823718127269696
sVMurein D,D-endopeptidase (murein4px4p) (periplasm)
p1546
F0.98237181272698
sVN-Acetyl-D-glucosamine(anhydrous)N-Acetylmuramyl-tetrapeptide beta -1,4-N-acetylglucosaminidase
p1547
F0.9823718127269785
sVFatty-acid-CoA ligase (hexadecenoate transport via vectoral Co-A coupling)
p1548
F0.9823718127269873
sVPropanal transport via diffusion (extracellular to periplasm)
p1549
F0.982371812726978
sVMolybdopterin synthase sulfurylase
p1550
F-6.037102747999329e-16
sV3,4-Dihydroxyphenylacetaldehyde exchange
p1551
F0.9823718127269738
sVMurein polymerizing transglycosylase
p1552
F1.1555273602985428e-24
sV2-Acyl-sn-glycero-3-phosphoglycerol (n-C12:0) transporter via facilitated diffusion (periplasm)
p1553
F0.9823718127269803
sVUDP-N-acetyl-D-galactosamine pyrophosphohydrolase (periplasm)
p1554
F0.9823718127269799
sVAldehyde dehydrogenase (propanal, NADP)
p1555
F0.9823718127269725
sV3-hydroxyacyl-CoA dehydratase (3-hydroxyhexanoyl-CoA)
p1556
F0.9720365831108261
sVRibonucleoside-triphosphate reductase (UTP) (flavodoxin)
p1557
F0.9823451598583299
sVL-arabinose transport via proton symport (periplasm)
p1558
F0.982371812726983
sVTrans-2-decenoyl-ACP isomerase
p1559
F0.982371812726972
sVPhosphatidylethanolamine transport via ABC system (n-C12:0, periplasm)
p1560
F0.9823718127306718
sVTartrate transport via diffusion (extracellular to periplasm)
p1561
F0.9823718127269722
sVL-asparagine transport via diffusion (extracellular to periplasm)
p1562
F0.9823718127269726
sVAldose reductase (acetol)
p1563
F0.9823718127269725
sVCadmium (Cd+2) ABC transporter (periplasm)
p1564
F0.9823718127269799
sVGlycerol-2-phosphate transport via diffusion (extracellular to periplasm)
p1565
F0.9823718127269792
sVL-Prolinylglycine transport via diffusion (extracellular to periplasm)
p1566
F0.9823718127269673
sVAcetyl-CoA:hexanoate-CoA transferase
p1567
F0.982371812727309
sVFe(III) reduction
p1568
F0.9823718127269746
sV3-isopropylmalate dehydrogenase
p1569
F0.0
sVL-threonine transport via ABC system (periplasm)
p1570
F0.9823718127269752
sVLysophospholipase L2 (acyltransferase, 2-acyl-glycerophosphoethanolamine, n-C16:1)
p1571
F0.9823718127269809
sV3GMP transport via diffusion (extracellular to periplasm)
p1572
F0.9823718127269803
sVIndole transport via proton symport, irreversible (periplasm)
p1573
F0.9823718127269814
sVDeoxyadenosine transport in via proton symport (periplasm)
p1574
F0.9823718127269802
sV5'-nucleotidase (dUMP)
p1575
F0.9823718127269777
sVTrehalose-6-phosphate hydrolase
p1576
F0.9823718127269826
sVCytidine deaminase
p1577
F0.9823718127269802
sV(S)-Propane-1,2-diol transport via diffusion (extracellular to periplasm)
p1578
F0.9823718127269803
sVLactose transport via diffusion (extracellular to periplasm)
p1579
F0.9823718127269813
sV3-Oxo-glutaryl-[ACP] methyl ester reductase
p1580
F0.0
sV3-oxoadipyl-CoA thiolase
p1581
F0.9823718127269759
sVAllose 6-phosphate isomerase
p1582
F0.9823718127269725
sVPotassium ABC transporter (periplasm)
p1583
F0.9823718127269806
sVPhospholipase A1 (phosphatidylglycerol, n-C14:1) (periplasm)
p1584
F0.9823718127269816
sVPhosphatidylglycerol phosphate phosphatase (n-C18:0)
p1585
F0.9823718127269796
sVHexadecenoate (n-C16:1) exchange
p1586
F0.9823718127269754
sVAcyl-(acyl carrier protein):phosphate acyltransferase (C16:0)
p1587
F0.9823718127269794
sVPhenethylamine transport via diffusion (extracellular to periplasm)
p1588
F0.9823718127269767
sVGlycerol dehydrogenase
p1589
F0.9823718127269792
sVFatty-acid-CoA thioesterase (hexanoate)
p1590
F0.9823718127269873
sV3'-UMP exchange
p1591
F0.9823718127269738
sVFormaldehyde transport via diffusion (periplasm)
p1592
F0.9823718127269873
sV2-Acyl-sn-glycero-3-phosphatidate (n-C18:0) transporter via facilitated diffusion (periplasm)
p1593
F0.9823718127269803
sVIron-sulfur cluster damage (peroxide, spontaneous)
p1594
F0.9823598826239368
sVMethanesulfonate exchange
p1595
F0.982371812726975
sVPyruvate kinase
p1596
F0.9823718127269754
sVCu2+ exchange
p1597
F-1.454827048824015e-15
sVDsbA protein reoxidation reaction (anaerobic)
p1598
F0.9823718127269767
sVPyridoxine 5'-phosphate synthase
p1599
F1.6435659341518554e-16
sVUndecaprenyl-diphosphatase (periplasm)
p1600
F0.9823718127269807
sVGlycine Cleavage System
p1601
F0.982204974974257
sVD-gluconate transport via diffusion (extracellular to periplasm)
p1602
F0.9823718127269806
sVAcetyl-CoA carboxylase
p1603
F-2.550124668154861e-15
sVHeptosyltransferase III (LPS core synthesis)
p1604
F0.9823718127269775
sVGDP-4-dehydro-6-deoxy-D-mannose epimerase
p1605
F0.9823718127268865
sV2-isopropylmalate hydratase
p1606
F0.0
sVTrimethylamine N-oxide reductase (menaquinol 8) (periplasm)
p1607
F0.9823718127269779
sVLysophospholipase L2 (2-acylglycerophosphotidate, n-C18:1)
p1608
F0.9823718127269809
sVTetraacyldisaccharide 4'kinase
p1609
F6.199801686453728e-31
sVNMN permease (periplasm)
p1610
F0.9823718127269808
sVUDP-N-acetylmuramoyl-L-alanyl-D-glutamyl-meso-2,6-diaminopimelate synthetase
p1611
F-4.121143734711581e-16
sVAcyl-CoA dehydrogenase (octadecanoyl-CoA)
p1612
F0.9823718127269776
sVGlycerophoglycerol transport via diffusion (extracellular to periplasm)
p1613
F0.9823718127269789
sV3-hydroxyadipyl-CoA dehydrogenase (NAD+)
p1614
F0.9823718127269738
sVSn-Glycero-3-phosphoethanolamine exchange
p1615
F0.9823718127452477
sVL-Arabinose exchange
p1616
F0.9823718127269738
sVDimethyl sulfoxide reductase (Demethylmenaquinol 8)
p1617
F0.9823718127269773
sVGalactitol transport via PEP:Pyr PTS (periplasm)
p1618
F0.9823718127269782
sVSelenite transport via proton symport (periplasm)
p1619
F0.9823718127270209
sVLysophospholipase L2 (2-acylglycerophosphotidate, n-C16:1)
p1620
F0.9823718127269809
sVReduced glutathione exchange
p1621
F0.9823718127276349
sVOctadecanoate transport via facilitated irreversible diffusion (extracellular to periplasm)
p1622
F0.9823718127269832
sVLipoate-ATP adenylate transferase
p1623
F0.9823718127269806
sVPhospholipase A2 (phosphatidylethanolamine, n-C16:0) (periplasm)
p1624
F0.9823718127269816
sVL-threonine reversible transport via proton symport (periplasm)
p1625
F0.9823718127269752
sVAcetylglutamate kinase
p1626
F1.4698156161416627e-15
sVD-Glucose 1-phosphate exchange
p1627
F0.9823718127452477
sVChloramphenicol exchange
p1628
F0.9823718127269766
sVGDP exchange
p1629
F0.9823718127452477
sVXanthine transport in via proton symport (periplasm)
p1630
F0.9823718127269766
sV3-hydroxyacyl-[acyl-carrier-protein] dehydratase (n-C8:0)
p1631
F0.9823718127269803
sVMurein lytic transglycosylase (murein4p3p) (periplasm)
p1632
F0.9823718127269826
sVGlucose-1-phosphatase
p1633
F0.9823718127269759
sVUDPgalactose pyrophosphohydrolase
p1634
F0.9823718127269807
sVGTP cyclohydrolase I
p1635
F0.0
sVCoprogen(Fe(III)) reductase
p1636
F0.9823718127269837
sVXanthine dehydrogenase
p1637
F0.9823718127269766
sVSelenate transport via proton symport (periplasm)
p1638
F0.9823718127269767
sVGDP-mannose phyrophosphatase
p1639
F0.9823718127268865
sVOrotate phosphoribosyltransferase
p1640
F0.0
sVMyo-inositol phosphate transport via diffusion (extracellular to periplasm)
p1641
F0.9823718127269826
sVGlycine betaine transport via diffusion (extracellular to periplasm)
p1642
F0.9823718127269792
sVLipid A transport via ABC system (periplasm)
p1643
F0.9823718127269806
sVL-methionine-S-oxide reductase
p1644
F0.982371812726979
sVSulfate exchange
p1645
F5.697678236412357e-17
sVMaltohexaose exchange
p1646
F0.9823718127269807
sVCo2+ exchange
p1647
F8.141009334616494e-16
sVL-phenylalanine reversible transport via proton symport (periplasm)
p1648
F0.9823718127269794
sVFructose-bisphosphate aldolase
p1649
F0.9823718127269875
sVMercury (Hg+2) transport via diffusion (extracellular to periplasm)
p1650
F0.9823718127269775
sVPyridoxamine transport via diffusion (extracellular)
p1651
F0.9823718127269796
sVSn-glycerol-3-phosphoethanolamine transport via ABC system (periplasm)
p1652
F0.9823718127269789
sVEnterobacterial common antigen polymerase (periplasm)
p1653
F0.9823718127269858
sVPhospholipase A1 (phosphatidylglycerol, n-C16:1) (periplasm)
p1654
F0.9823718127269816
sVD-Methionine exchange
p1655
F0.9823718127269813
sV2-Acyl-sn-glycero-3-phosphatidate (n-C14:0) transporter via facilitated diffusion (periplasm)
p1656
F0.9823718127269803
sVL-lysine transport via diffusion (extracellular to periplasm)
p1657
F0.9823718127269809
sVFructose-1-phosphate kinase
p1658
F0.9823718127269746
sVSink needed to allow oxamate to leave system
p1659
F0.982371812726981
sVAerobactin transport via ABC system (periplasm)
p1660
F0.982371812726983
sVTaurine exchange
p1661
F0.9823718127269764
sVAconitase (half-reaction B, Isocitrate hydro-lyase)
p1662
F-7.500918134167784e-16
sVLysophospholipase L2 (acyltransferase, 2-acyl-glycerophosphoethanolamine, n-C14:0)
p1663
F0.9823718127269809
sVPhospholipase A1 (phosphatidylethanolamine, n-C18:0) (periplasm)
p1664
F0.9823718127269816
sVOrnithine transport via diffusion (extracellular to periplasm)
p1665
F0.982371812726982
sVGlycine exchange
p1666
F0.9823718127276349
sVPhospholipase A1 (phosphatidylethanolamine, n-C16:0) (periplasm)
p1667
F0.9823718127269816
sVRiboflavin kinase
p1668
F0.0
sVAp5A hydrolase
p1669
F0.9823718127269832
sVMurein D,D-endopeptidase (murein5px4p) (periplasm)
p1670
F0.98237181272698
sVSucrose transport transport via diffusion (extracellular to periplasm)
p1671
F0.9823718127269722
sVNucleoside triphosphate pyrophosphorylase (gtp)
p1672
F0.9823718127269777
sV1,6-anhydrous-N-Acetylmuramate kinase
p1673
F0.9823718127269774
sVPurine-nucleoside phosphorylase (Deoxyadenosine)
p1674
F0.9823718127269796
sVDAMP transport via diffusion (extracellular to periplasm)
p1675
F0.9823718127269802
sVLPS heptose kinase II (LPS core synthesis)
p1676
F0.9823718127269775
sVN-Acetyl-D-glucosamine(anhydrous)N-Acetylmuramyl-tripeptide beta -1,4-N-acetylglucosaminidase
p1677
F0.9823718127269785
sVFe3+ exchange
p1678
F0.9823718127452477
sVPhosphatidylethanolamine transport via ABC system (n-C16:1, periplasm)
p1679
F0.0
sVPantetheine-phosphate adenylyltransferase
p1680
F0.0
sV3-oxoacyl-[acyl-carrier-protein] reductase (n-C14:1)
p1681
F0.982371812726975
sVReduced glutathione via ABC system (periplasm)
p1682
F0.9823718127269803
sVLysophospholipase L1 (2-acylglycerophosphoglycerol, n-C18:0) (periplasm)
p1683
F0.9823718127269809
sVAdenosylcobalamin exchange
p1684
F0.9823718127269738
sV3-hydroxyacyl-CoA dehydrogenase (3-oxododecanoyl-CoA)
p1685
F0.9776728488265773
sVD-glycerate transport via proton symport, reversible (periplasm)
p1686
F0.9823718127269792
sVGlutamine synthetase
p1687
F-1.539784559024214e-16
sVFumarate reductase
p1688
F0.9823718127269746
sV2,5-diketo-D-gluconate reductase (NADPH)
p1689
F0.9823718127269763
sVMurein lytic transglycosylase (murein3p3p) (periplasm)
p1690
F0.9823718127269826
sV3-oxoacyl-[acyl-carrier-protein] reductase (n-C16:1)
p1691
F0.982371812726975
sVProtoporphyrinogen oxidase (anaerobic)
p1692
F0.9823690868684681
sVTaurine dioxygenase
p1693
F0.9823718127269722
sVSn-Glycerol 2-phosphate transport via ABC system (periplasm)
p1694
F0.9823718127269792
sVUMP transport via diffusion (extracellular to periplasm)
p1695
F0.9823718127269766
sVEndotoxin Synthesis (lauroyl transferase)
p1696
F0.9823718127269719
sVPhosphonate exchange
p1697
F0.9823718127269758
sV5'-nucleotidase (dAMP)
p1698
F0.9823718127269777
sVPhosphatidylserine decarboxylase (n-C12:0)
p1699
F0.9823718127269827
sVL-methionine S-oxide diffusion (extracellular)
p1700
F0.982371812726979
sVPhosphatidylglycerol transport via ABC system (n-C18:1, periplasm)
p1701
F0.9823718127269889
sV3-hydroxyacyl-CoA dehydrogenase (3-oxohexanoyl-CoA)
p1702
F0.9720365831108303
sVL-cysteine transport via diffusion (extracellular to periplasm)
p1703
F0.9823718127269782
sVMelibiose exchange
p1704
F0.9823718127269807
sVN-Acetyl-D-glucosamine transport via diffusion (extracellular to periplasm)
p1705
F0.982371812726976
sVAminomethyltransferase
p1706
F0.9823718127269746
sVCopper transport in via permease (no H+)
p1707
F0.0
sVDeoxyadenosine exchange
p1708
F0.9823718127452477
sVL-Homoserine exchange
p1709
F0.9823718127269754
sVUDP-N-acetylglucosamine:undecaprenylphosphate N-acetylglucosamine -1-phosphate transferase
p1710
F0.982371812726976
sVUDP-D-glucuronate pyrophosphohydrolase (periplasm)
p1711
F0.9823718127269807
sVMannitol-1-phosphate 5-dehydrogenase
p1712
F0.9823718127269809
sVDiacetylchitobiose-6-phosphate hydrolase
p1713
F0.9823718127336012
sV4-aminobenzoate synthase
p1714
F-4.321587446484426e-16
sVSuccintate transport via proton symport (3 H) (periplasm)
p1715
F0.9823718127269723
sVCalcium (Ca+2) transport via diffusion (extracellular to periplasm)
p1716
F-1.50712680136644e-17
sVFe(III)hydroxamate unloaded secretion (extracellular)
p1717
F0.9823718127269746
sVL-ascorbate 6-phosphate lactonase
p1718
F0.9823718127269726
sVAlpha-D-Ribose 5-phosphate exchange
p1719
F0.9823718127269758
sVCalcium exchange
p1720
F-6.946635345832568e-17
sVAcyl-CoA dehydrogenase (hexadecanoyl-CoA)
p1721
F0.9817222111101164
sVD-glucuronate 1-phosphate transport via diffusion (extracellular to periplasm)
p1722
F0.9823718127269806
sVAerobactin minus Fe3 exchange
p1723
F0.9823718127269738
sVFormate-hydrogen lyase
p1724
F0.9823718127269746
sV1,5-Diaminopentane transport via diffusion (extracellular to periplasm)
p1725
F0.9823718127269819
sVPhosphatidylserine decarboxylase (n-C14:0)
p1726
F0.9823718127269827
sVAltronate hydrolase
p1727
F0.9823718127269725
sVL-ribulokinase (L-ribulose)
p1728
F0.9823718127269822
sVGlutaredoxin reductase
p1729
F0.9823718127269803
sVL-lysine transport in via proton symport (periplasm)
p1730
F0.9823718127269809
sVLysophospholipase L1 (2-acylglycerophosphoglycerol, n-C12:0) (periplasm)
p1731
F0.9823718127269809
sVDsbG:glutathione thiotransferase
p1732
F0.9823718127269767
sVL-xylulose 5-phosphate 3-epimerase
p1733
F0.9823718127269766
sV4-aminobutyrate/glutamate antiport (periplasm)
p1734
F0.9823718127269783
sVUroporphyrinogen decarboxylase (uroporphyrinogen III)
p1735
F0.0
sV2',3'-Cyclic AMP exchange
p1736
F0.9823718127269738
sVNitrious oxide transport via diffusion (extracellular to periplasm)
p1737
F0.9823718127249216
sVChloride (Cl-1) transport via diffusion (extracellular to periplasm)
p1738
F0.0
sVPhosphopantothenate-cysteine ligase
p1739
F-1.1100423246184185e-10
sVGlutathione synthetase
p1740
F0.9823718127269803
sVMolybdopterin synthase
p1741
F-6.037102747999329e-16
sVL-alanine-L-glutamate exchange
p1742
F0.9823718127269738
sVMethanesulfonate transport via diffusion (extracellular to periplasm)
p1743
F0.9823718127249221
sVGTP exchange
p1744
F0.9823718127276349
sVChitobiose transport via diffusion (extracellular to periplasm)
p1745
F0.982371812726979
sVNucleoside triphosphate pyrophosphorylase (ctp)
p1746
F0.9823718127269777
sVPhosphatidylserine syntase (n-C12:0)
p1747
F0.9823718127269768
sVNucleoside-triphosphatase (GTP) (periplasm)
p1748
F0.9823718127269777
sVMannitol transport via PEP:Pyr PTS (periplasm)
p1749
F0.9823718127269826
sVCoprogen unloaded secretion (extracellular)
p1750
F0.9823718127269837
sVDeoxyuridine exchange
p1751
F0.9823718127452477
sVLactose transport via proton symport (periplasm)
p1752
F0.9823718127269813
sVCO2 exchange
p1753
F0.6980711078540773
sVPhospholipase A2 (phosphatidylglycerol, n-C12:0) (periplasm)
p1754
F0.9823718127269816
sVPurine-nucleoside phosphorylase (Inosine)
p1755
F0.9823718127269796
sVSuccinate transport out via proton antiport (periplasm)
p1756
F0.9823718127269723
sVDeoxyinosine transport via diffusion (extracellular to periplasm)
p1757
F0.9823718127269763
sVL-fucose isomerase
p1758
F0.9823718127269874
sV2,3-dihydroxybenzoylserine hydrolase
p1759
F0.9823718127269784
sV6-carboxy-5,6,7,8-tetrahydropterin synthase
p1760
F0.9823718127269837
sVCO2 transport via diffusion (extracellular to periplasm)
p1761
F0.6980711078540836
sVSUF [2Fe-2S] Synthesis II
p1762
F0.9823718127269767
sVAllantoate amidohydrolase
p1763
F0.9823718127269725
sVPhospholipase A1 (phosphatidylethanolamine, n-C14:1) (periplasm)
p1764
F0.9823718127269816
sVHydroxypyruvate reductase (NADPH)
p1765
F0.9823718127269762
sVRibonucleoside-diphosphate reductase (UDP) (glutaredoxin)
p1766
F0.9823718127269824
sVD-glucose 1-phosphate transport via diffusion
p1767
F0.9823718127269759
sVLysophospholipase L2 (acyltransferase, 2-acyl-glycerophosphoglycerol, n-C16:0)
p1768
F0.9823718127269809
sVNovobiocin transport via diffusion (extracellular to periplasm)
p1769
F0.9823718127269777
sV2-methylisocitrate dehydratase
p1770
F0.9823718127269826
sVTrimethylamine N-oxide reductase (menaquinol 8)
p1771
F0.9823718127269779
sVCytosine transport in via proton symport (periplasm)
p1772
F0.9823718127269765
sVAcyl-(acyl carrier protein):phosphate acyltransferase (C16:1)
p1773
F0.9823718127269794
sVL-xylulose transport via diffusion (extracellular to periplasm)
p1774
F0.9823718127269766
sVPhosphatidylserine syntase (n-C18:1)
p1775
F0.9823718127269796
sV1-hydroxy-2-methyl-2-(E)-butenyl 4-diphosphate reductase (dmpp)
p1776
F0.9823718127269773
sVMaltopentaose transport via ABC system (periplasm)
p1777
F0.9823718127269785
sVEthanolamine transport in via proton symport
p1778
F0.9823718127269875
sVISC [2Fe-2S] Synthesis II
p1779
F0.9823696939720025
sVUreidoglycolate hydrolase
p1780
F0.9823718127269807
sVUDP-N-acetylmuramoyl-L-alanyl-D-glutamyl-meso-2,6-diaminopimeloyl-D-alanyl-D-alanine synthetase
p1781
F-5.4467620296162176e-14
sVPyridoxamine exchange
p1782
F0.9823718127269758
sVAcetaldehyde exchange
p1783
F0.9823718127269738
sVTungstate transport via diffusion (extracellular to periplasm)
p1784
F0.9823718127269826
sV3'-AMP exchange
p1785
F0.9823718127269738
sVOrotidine-5'-phosphate decarboxylase
p1786
F0.0
sVMethionine oxidation (spontaneous)
p1787
F0.9823718127269799
sVDopamine transport via diffusion (extracellular to periplasm)
p1788
F0.9823718127269775
sVMaltose O-acetyltransferase
p1789
F0.9823718127269785
sVDimethyl sulfoxide transport via diffusion (periplasm)
p1790
F0.9823718127269773
sVFatty-acid-CoA thioesterase (hexadecanoate)
p1791
F0.9817222111101266
sVZinc exchange
p1792
F0.0
sV5-Methylthio-D-ribose transport via proton diffusion (extracellular to periplasm)
p1793
F0.9823718127269743
sVGamma-glutamylcysteine synthetase
p1794
F0.9823718127269783
sVA-galactosidase (melibiose)
p1795
F0.9823718127269782
sVMethionine oxidation 2 (spontaneous)
p1796
F0.9823718127269799
sVRibonucleoside-diphosphate reductase (ADP) (glutaredoxin)
p1797
F0.9823718127269824
sVPhospholipase A2 (phosphatidylglycerol, n-C18:0) (periplasm)
p1798
F0.9823718127269816
sVPyrimidine-nucleoside phosphorylase (uracil)
p1799
F0.9823718127269754
sVPyridoxine 5-phosphate phosphatase
p1800
F0.9823718127306718
sV3'-nucleotidase (UMP) (periplasm)
p1801
F0.9823718127269803
sV7-cyano-7-carbaguanine synthase
p1802
F0.9823718127269799
sVBiotin transport via proton symport (periplasm)
p1803
F0.9823718127269825
sVDoxorubicin exchange
p1804
F0.9823718127452477
sVN-Acetyl-D-glucosamine(anhydrous)N-Acetylmuramyl-tripeptide amidase
p1805
F0.9823718127269785
sVOctaprenyl pyrophosphate synthase
p1806
F0.0
sVL-asparaginase
p1807
F0.9823718127269726
sV2,3-dihydro-2,3-dihydroxybenzoate dehydrogenase
p1808
F0.9823718127269784
sVPhosphatidate transport via ABC system (n-C16:1, periplasm)
p1809
F0.9823718127269768
sVAcyl-CoA dehydrogenase (tetradecanoyl-CoA)
p1810
F0.9803099307687908
sVDsbC:glutathione thiotransferase
p1811
F0.9823718127269767
sVAdenosine transport via diffusion (extracellular to periplasm)
p1812
F0.9823718127269797
sVHydrogen peroxide transport via diffusion (external)
p1813
F0.9823718127254115
sVAmmonia transport via diffusion (extracellular to periplasm)
p1814
F7.884037920509505e-15
sVL-methionine S-oxide transport via ABC system (periplasm)
p1815
F0.982371812726979
sV(L-seryl)adenylate synthase
p1816
F0.9823718127269767
sVSUF Cysteine desulfuration
p1817
F0.9823718127269767
sVMyo-Inositol exchange
p1818
F0.9823718127269754
sVCob(1)alamin transport via ton system (extermal)
p1819
F0.9823718127269797
sV23cGMP transport via diffusion (extracellular to periplasm)
p1820
F0.9823718127269803
sVL-Malate exchange
p1821
F0.9823718127269807
sVRiboflavin synthase
p1822
F0.0
sVD-glucose transport via ABC system (periplasm)
p1823
F0.9823718127269806
sVBeta-ketoacyl-ACP synthase
p1824
F0.9823718127269733
sVPyridoxamine import
p1825
F0.9823718127269796
sVAspartate kinase
p1826
F0.0
sVPhospholipase A2 (phosphatidate, n-C12:0) (periplasm)
p1827
F0.9823718127269816
sVCytochrome oxidase bo3 (ubiquinol-8: 4 protons) (periplasm)
p1828
F0.8935716128482399
sVPhospholipase A2 (phosphatidylglycerol, n-C14:1) (periplasm)
p1829
F0.9823718127269816
sVPyruvate transport via diffusion (extracellular to periplasm)
p1830
F0.9823718127269754
sVTyrosyl-tRNA synthetase
p1831
F0.9823718127269827
sVLysophospholipase L1 (2-acylglycerophosphoethanolamine, n-C18:0) (periplasm)
p1832
F0.9823718127269809
sVPhosphomannomutase
p1833
F0.9823718127269816
sVL-rhamnose transport via diffusion (extracellular to periplasm)
p1834
F0.9823718127269824
sVUDP-sugar hydrolase
p1835
F-5.3446248210359387e-17
sVD-fructose 6-phosphate phosphatase
p1836
F0.9823718127269873
sVL-phenylalanine transport via diffusion (extracellular to periplasm)
p1837
F0.9823718127269794
sVGamma glutamyl putrescine oxidase
p1838
F0.9823718127269813
sVFusidic acid transport via diffusion (extracellular to periplasm)
p1839
F0.9823718127269858
sVNucleoside triphosphate pyrophosphorylase (dgtp)
p1840
F0.9823718127269777
sVSulfite transport via diffusion (extracellular to periplasm)
p1841
F0.9823718127270209
sVSuccinyl-CoA synthetase (ADP-forming)
p1842
F0.9794797645369964
sVNADPH Quinone Reductase (Menaquinone-8)
p1843
F0.9823718127269851
sVFe(III)hydroxamine transport via ton system (extracellular)
p1844
F0.9823718127269746
sVIron (III) transport via ABC system (periplasm to cytoplasm)
p1845
F0.9823718127269746
sVShikimate transport in via proton symport (periplasm)
p1846
F0.9823718127270209
sVPhosphatidate phosphatase (periplasmic, n-C16:1)
p1847
F0.9823718127269696
sVMolybdenum cofactor synthase
p1848
F3.0732102664201274e-16
sVUndecaprenyl phosphate-L-Ara4FN transferase
p1849
F0.9823718127269766
sVQuinolinate synthase
p1850
F-4.759447640409534e-17
sVPhenylacetaldehyde exchange
p1851
F0.9823718127269746
sV3-oxoacyl-[acyl-carrier-protein] reductase (n-C14:0)
p1852
F-2.7042036058229115e-31
sV2',3'-Cyclic CMP exchange
p1853
F0.9823718127269738
sV2-Octaprenylphenol hydroxylase (anaerobic)
p1854
F0.982371812726979
sV4-amino-2-methyl-5-phosphomethylpyrimidine synthetase
p1855
F0.0
sVGalactarate dehydratase
p1856
F0.9823718127269782
sVIron (II) transport in via proton symport (periplasm)
p1857
F0.9823718127269746
sVCadmium (Cd+2) transport out via proton antiport (periplasm)
p1858
F0.9823718127269799
sVL-allo-Threonine Aldolase
p1859
F0.982371812726977
sVLactose transport via proton aniport (periplasm)
p1860
F0.9823718127269813
sVIron transport from ferric-dicitrate via ABC system (periplasm)
p1861
F0.9823718127269746
sVNucleoside-diphosphate kinase (ATP:GDP)
p1862
F0.9823718127269085
sVMolybdopterin guanine dinucleotide synthase
p1863
F0.9823718127269778
sVMaltotetraoseMaltotriose transport via diffusion (extracellular to periplasm) irreversible
p1864
F0.9823718127269785
sVGlutamyl-tRNA synthetase
p1865
F5.796772964460965e-14
sVSuperoxide anion exchange
p1866
F0.9823718127269746
sVL-fuculokinase
p1867
F0.9823718127269874
sV3-keto-L-gulonate 6-phosphate decarboxylase
p1868
F0.9823718127269806
sVManganese (Mn+2) transport in via proton symport (periplasm)
p1869
F0.9823718127269826
sVD-Sorbitol exchange
p1870
F0.9823718127269758
sVCadmium exchange
p1871
F0.9823718127269743
sVD-alanyl-D-alanine (DalaDala) transport via diffusion (extracellular to periplasm)
p1872
F0.9823718127269789
sVCystathionine b-lyase
p1873
F-3.37883256345992e-16
sVCyanide transport via diffusion (extracellular to periplasm)
p1874
F0.9823718127269782
sVL-aspartate transport in via proton symport (periplasm)
p1875
F0.9823718127269682
sVAsparaginyl-tRNA synthetase
p1876
F0.9823718127269726
sVL-arginine transport via diffusion (extracellular to periplasm)
p1877
F0.982371812726983
sV2',3'-cyclic-nucleotide phosphodiesterase (CMP) (periplasm)
p1878
F0.9823718127269803
sVPhosphopentomutase
p1879
F0.9823718127268654
sVL-xylulose transport in via proton symport (periplasm)
p1880
F0.9823718127269766
sVH2O transport via diffusion (extracellular to periplasm)
p1881
F0.496865390874445
sV3-hydroxycinnamate hydroxylase
p1882
F0.9823718127269803
sVL-Prolinylglycine exchange
p1883
F0.9823718127269758
sV2-Acyl-sn-glycero-3-phosphatidate (n-C14:1) transporter via facilitated diffusion (periplasm)
p1884
F0.9823718127269803
sV3-oxoacyl-[acyl-carrier-protein] reductase (n-C18:0)
p1885
F0.982371812726975
sV3-phosphoshikimate 1-carboxyvinyltransferase
p1886
F0.0
sVPhospholipase A2 (phosphatidate, n-C14:0) (periplasm)
p1887
F0.9823718127269816
sV3-oxoacyl-[acyl-carrier-protein] reductase (n-C16:0)
p1888
F0.982371812726975
sVL-lactate transport via diffusion (extracellular to periplasm)
p1889
F0.9823718127269813
sVPhospholipase A2 (phosphatidylethanolamine, n-C16:1) (periplasm)
p1890
F0.9823718127269816
sVTrehalose transport via PEP:Pyr PTS (periplasm)
p1891
F0.9823718127269826
sVLipoate transport via diffusion (extracellular to periplasm)
p1892
F0.9823718127269806
sVSuccinate:fumarate antiporter (periplasm)
p1893
F0.9823718127269722
sVAcyl-CoA dehydrogenase (dodecanoyl-CoA)
p1894
F0.9776728488265785
sVPhosphatidylglycerol phosphate phosphatase (periplasm, n-C16:0)
p1895
F0.9823718127269796
sVAdenosyl cobinamide phosphate guanyltransferase
p1896
F0.9823718127269766
sVThiazole phosphate synthesis
p1897
F0.0
sVCytochrome oxidase bd (menaquinol-8: 2 protons) (periplasm)
p1898
F0.9823718127269782
sVUTP-glucose-1-phosphate uridylyltransferase (irreversible)
p1899
F0.9823718127269782
sVAldehyde dehydrogenase (butanal, NAD)
p1900
F0.9823718127269725
sV4-amino-4-deoxychorismate synthase
p1901
F-4.321587446484426e-16
sVLysophospholipase L2 (acyltransferase, 2-acyl-glycerophosphoglycerol, n-C16:1)
p1902
F0.9823718127269809
sVN-acetylglucosamine kinase
p1903
F0.982371812726976
sVThiol:disulfide reductase (DsbG)
p1904
F0.9823718127269773
sVPeroxyureidoacrylate hydrolase
p1905
F0.982371812726977
sVD-glucuronat transport via diffusion (extracellular to periplasm)
p1906
F0.9823718127269806
sVPhosphatidylglycerol transport via ABC system (n-C14:0, periplasm)
p1907
F0.9823718127269889
sVPhospholipase A2 (phosphatidylglycerol, n-C14:0) (periplasm)
p1908
F0.9823718127269816
sVGlucosamine-6-phosphate deaminase
p1909
F0.9823718127269786
sVAmylomaltase (maltotetraose)
p1910
F0.9823718127269725
sVN-acetyl-D-glucosamine 1-phosphate transport via diffusion (extracellular to periplasm)
p1911
F0.982371812726976
sVL-threonine transport via diffusion (extracellular to periplasm)
p1912
F0.9823718127269752
sVN-acetylneuraminate proton symport (periplasm)
p1913
F0.9823718127269774
sVL-Methionine exchange
p1914
F0.9823718127269813
sVAcyl-[acyl-carrier-protein] synthetase  (n-C8:0)
p1915
F0.9823718127269764
sV3-oxoacyl-[acyl-carrier-protein] synthase (n-C14:0)
p1916
F-1.8942913448384024e-31
sVGlycyl-tRNA synthetase
p1917
F0.9823718127269792
sVSO2 transport via diffusion (extracellular to periplasm)
p1918
F0.9823718127270209
sV5-Dehydro-D-gluconate transport via diffusion (extracellular to periplasm)
p1919
F0.9823718127269759
sVGlycerophosphoglycerol exchange
p1920
F0.9823718127452477
sVN-acetylglutamate synthase
p1921
F1.4698156161416627e-15
sVD-galactonate transport via proton symport (periplasm)
p1922
F0.9823718127269782
sVS-adenosylhomocysteine nucleosidase
p1923
F-3.00068683885915e-16
sVGlycolate transport via sodium symport (periplasm)
p1924
F0.9823718127269792
sVPhosphatidylethanolamine transport via ABC system (n-C14:0, periplasm)
p1925
F0.9823718127306718
sVGlutamate racemase
p1926
F-3.985521708488922e-16
sVProtoheme transport irreversible out via diffusion (periplasm to extracellular)
p1927
F0.9823718127269796
sVL-Tryptophan exchange
p1928
F0.9823718127269764
sVManganese transport in via permease (no H+)
p1929
F0.9823711088510083
sVSink needed to allow p-Cresol to leave system
p1930
F0.0
sVPhosphonate transport via diffusion (extracellular to periplasm)
p1931
F0.9823718127269765
sVThiamine transport via ABC system (periplasm)
p1932
F0.982371812726977
sVAcetyl-CoA synthetase
p1933
F0.9823718127269793
sVATP maintenance requirement
p1934
F0.9954369223325903
sVL(+)-tartrate dehydratase
p1935
F0.9823718127269722
sVAcetaldehyde dehydrogenase (acetylating)
p1936
F0.9823718127269766
sVTetrahydrofolate aminomethyltransferase
p1937
F0.982371812726977
sVLipoate synthase
p1938
F0.9823718127269806
sVL-isoleucine reversible transport via proton symport (periplasm)
p1939
F0.9823718127269814
sV1-octadec-7-enoyl-sn-glycerol 3-phosphate O-acyltransferase (n-C18:1)
p1940
F0.9823718127269785
sVO-Acetyl-L-serine exchange
p1941
F0.9823718127269738
sVRifampin exchange
p1942
F0.9823718127269758
sVDeoxyguanosine exchange
p1943
F0.9823718127452477
sVArabinose-5-phosphate isomerase
p1944
F-9.250403934655038e-17
sVL-threonine dehydrogenase
p1945
F0.982371812726977
sVPhosphate reversible transport via symport (periplasm)
p1946
F0.9794328124225675
sVNucleoside-diphosphate kinase (ATP:dGDP)
p1947
F0.9823718127269759
sV3-oxoacyl-[acyl-carrier-protein] reductase (n-C12:1)
p1948
F0.9823718127269803
sVKDO(2)-lipid IV A transport via ABC system (periplasm to extracellular)
p1949
F0.0
sVAcetylornithine deacetylase
p1950
F5.169465693934e-17
sVAcyl-[acyl-carrier-protein] synthetase (n-C14:0)
p1951
F0.9823718127269734
sVNucleoside-diphosphate kinase (ATP:CDP)
p1952
F0.9805465829954286
sV3-oxoacyl-[acyl-carrier-protein] synthase (n-C18:0)
p1953
F0.9823718127269759
sVSelenophosphate synthase
p1954
F0.9823718127269767
sVLipoate exchange
p1955
F0.9823718127269807
sVGamma-butyrobetainyl-CoA: carnitine CoA transferase
p1956
F0.9823718127269816
sVMagnesium (+2) transport in via diffusion
p1957
F0.9823718127269826
sVL-leucine reversible transport via proton symport (periplasm)
p1958
F0.9823718127269806
sV2-Acyl-sn-glycero-3-phosphoglycerol (n-C14:1) transporter via facilitated diffusion (periplasm)
p1959
F0.9823718127269803
sVPhosphoribosylformylglycinamidine synthase
p1960
F3.6582459270582026e-15
sVEnterochelin Esterase
p1961
F0.982371812726979
sVLysophospholipase L1 (2-acylglycerophosphotidate, n-C18:0) (periplasm)
p1962
F0.9823718127269809
sVL-homoserine transport via diffusion (extracellular to periplasm)
p1963
F0.9823718127269758
sVUDPglucose transport via diffusion (extracellular to periplasm)
p1964
F0.9823718127269807
sVHepta-acylated core oligosaccharide lipid A (E. coli) exchange
p1965
F0.9823718127269754
sVL-arabinose isomerase
p1966
F0.982371812726983
sVMaltodextrin glucosidase (maltotetraose)
p1967
F0.9823718127269826
sVSink needed to allow S-Adenosyl-4-methylthio-2-oxobutanoate to leave system
p1968
F-5.028754200997181e-16
sVISC [2Fe-2S] Transfer
p1969
F0.9823716986402513
sVImidazole-glycerol-3-phosphate synthase
p1970
F0.0
sVAdenosyl cobinamide kinase
p1971
F0.9823718127269797
sV3'-cmp exchange
p1972
F0.9823718127269738
sVL-lysine transport out via proton antiport (cytoplasm to periplasm)
p1973
F0.9823718127269809
sVL-fuculose 1-phosphate aldolase
p1974
F0.9823718127269874
sVPhosphatidate transport via ABC system (n-C14:0, periplasm)
p1975
F0.9823718127269768
sVSuccinate transport via diffusion (extracellular to periplasm)
p1976
F0.9823718127269723
sVD-mannose transport via diffusion (extracellular to periplasm)
p1977
F0.9823718127269785
sVOrotate exchange
p1978
F0.9823718127269746
sVPhosphatidate transport via ABC system (n-C16:0, periplasm)
p1979
F0.9823718127269768
sVCopper (Cu+2) transport via diffusion (extracellular to periplasm)
p1980
F0.0
sVDeoxyinosine exchange
p1981
F0.9823718127452477
sVChitobiose exchange
p1982
F0.9823718127269743
sVPrephenate dehydratase
p1983
F0.0
sVCarnityl-CoA dehydratse
p1984
F0.9823718127269816
sVL-fucose transport via proton symport (periplasm)
p1985
F0.9823718127269746
sVNAD(P) transhydrogenase (periplasm)
p1986
F0.9823718127269773
sVLysine/Cadaverine antiporter (periplasm)
p1987
F0.982371812726977
sVFerrichrome reductase
p1988
F0.9823718127269746
sVDoxorubicin transport via diffusion (extracellular to periplasm)
p1989
F0.9823718127269775
sVFatty-acid-CoA ligase (octanoate transport via vectoral Co-A coupling)
p1990
F0.9823718127269873
sVGlucosamine-1-phosphate N-acetyltransferase
p1991
F9.179596752904111e-18
sVAcetate exchange
p1992
F0.9823718127269738
sVDihydroxyacetone phosphotransferase
p1993
F0.9823718127269784
sVPhenethylamine oxidase
p1994
F0.9823718127269767
sV6-hydroxymethyl-dihydropterin pyrophosphokinase
p1995
F0.0
sVPhosphoenolpyruvate carboxylase
p1996
F0.979366530408116
sVCytosine exchange
p1997
F0.9823718127269776
sVNADH dehydrogenase (menaquinone-8 & 3 protons) (periplasm)
p1998
F0.9823718127269755
sVNitrate reductase (Menaquinol-8) (periplasm)
p1999
F0.9823718127269777
sVUDPglucose 4-epimerase
p2000
F0.9823718127269807
sVHydrogen transport via diffusion (extracellular to periplasm)
p2001
F0.9823718127269764
sVPhospholipase A2 (phosphatidate, n-C16:0) (periplasm)
p2002
F0.9823718127269816
sVFe(III)hydoxamate, unloaded exchange
p2003
F0.9823718127452477
sVSilver exchange
p2004
F0.9823718127269738
sV2',3'-Cyclic GMP exchange
p2005
F0.9823718127269738
sVArgininosuccinate lyase
p2006
F0.0
sVAnhydrous-N-Acetylmuramyl-tetrapeptide L,D-carboxypeptidase
p2007
F0.9823718127269725
sVLysophospholipase L2 (acyltransferase, 2-acyl-glycerophosphoglycerol, n-C18:0)
p2008
F0.9823718127269809
sVOrnithine exchange
p2009
F0.9823718127269746
sVD-lactate exchange
p2010
F0.9823718127269807
sVLactaldehyde dehydrogenase
p2011
F0.9823718127269813
sVPhosphatidate phosphatase (periplasmic, n-C12:0)
p2012
F0.9823718127269696
sVCardiolipin synthase (periplasmic, n-C12:0)
p2013
F0.982371812726979
sVGlucose-1-phosphate adenylyltransferase
p2014
F0.9823718127269804
sVSodium transport via diffusion (extracellular to periplasm)
p2015
F0.9823718127269085
sVPhosphoribosyl-ATP pyrophosphatase
p2016
F-5.681617637366511e-31
sVPropionate transport via diffusion
p2017
F0.982371812726978
sVGlycerophosphodiester phosphodiesterase (Glycerophosphoglycerol)
p2018
F0.9823718127269799
sVRibonucleoside-triphosphate reductase (CTP) (flavodoxin)
p2019
F0.982344293048125
sVHg2+ exchange
p2020
F0.9823718127269754
sVCitrate transport via diffusion (extracellular to periplasm)
p2021
F0.982371812726979
sVDTMP exchange
p2022
F0.9823718127452477
sVMaltodextrin glucosidase (maltoheptaose)
p2023
F0.9823718127269826
sVRibonucleoside-diphosphate reductase (UDP)
p2024
F0.9823718127269824
sVEndotoxin Synthesis (myristoyl transferase)
p2025
F0.9823718127269719
sVSuccinate-semialdehyde dehydrogenase (NAD)
p2026
F0.9823718127269723
sVBis-molybdopterin guanine dinucleotide synthase
p2027
F0.0
sVNicotinic acid mononucleotide pyrophosphorylase
p2028
F0.9823718127269085
sVAerobactin Fe-loading reaction (spontaneous)
p2029
F0.982371812726983
sVPhosphatidylserine decarboxylase (n-C18:0)
p2030
F0.982371812726977
sVAldehyde dehydrogenase (acetaldehyde, NAD)
p2031
F0.9823718127269725
sVNAD transhydrogenase
p2032
F0.9823718127269085
sVCytidine hydrolase
p2033
F0.9823718127269802
sVXylose isomerase
p2034
F0.9823718127269766
sVN-Acetyl-D-glucosamine(anhydrous)N-Acetylmuramyl-tetrapeptide amidase (periplasm)
p2035
F0.9823718127269785
sVD-serine transport via diffusion (extracellular to periplasm)
p2036
F0.9823718127269767
sVGlycerol-3-phosphate acyltransferase (C18:1)
p2037
F0.9823718127269713
sVOrotate transport via proton symport (2 H) (periplasm)
p2038
F0.982371812726982
sVThiamine-phosphate kinase
p2039
F0.0
sVThymidylate synthase
p2040
F5.860641874048914e-14
sVPhosphoethanolamine transferase (c-C16:1)
p2041
F0.9823718127269905
sV3-oxoacyl-[acyl-carrier-protein] reductase (n-C8:0)
p2042
F0.982371812726975
sVFerroxamine minus Fe(3) exchange
p2043
F0.9823718127452477
sVHydrogen peroxide exchange
p2044
F0.9823718127269754
sVCardiolipin hydrolase (periplasm, n-C14:1)
p2045
F0.982371812726979
sVCytochrome oxidase bd (ubiquinol-8: 2 protons) (periplasm)
p2046
F0.9823718127269782
sVMurein crosslinking transpeptidase 1B:(A2pm->A2pm) (periplasm)
p2047
F0.98237181272698
sVUDP-N-acetylglucosamine-N-acetylmuramyl-(pentapeptide)pyrophosphoryl-undecaprenol N-acetylglucosamine transferase
p2048
F1.0878285984656501e-30
sVLysophospholipase L2 (acyltransferase, 2-acyl-glycerophosphoglycerol, n-C14:0)
p2049
F0.9823718127269809
sVFusidic acid transport via TolC system
p2050
F0.9823718127269858
sV2-dehydro-3-deoxy-D-gluconate transport via diffusion (extracellular to periplasm)
p2051
F0.9823718127336012
sVAgmatine transport via diffusion (extracellular to periplasm)
p2052
F0.9823718127269785
sV3-Oxo-glutaryl-[ACP] methyl ester synthase
p2053
F0.0
sVUreidoglycolate dehydrogenase
p2054
F0.982371812726977
sVDopamine exchange
p2055
F0.9823718127452477
sVD-fructuronate transport via proton symport, reversible (periplasm)
p2056
F0.9823718127269746
sVAllantoinase
p2057
F0.9823718127269725
sVNicotinate-nucleotide diphosphorylase (carboxylating)
p2058
F-1.5349198490499877e-12
sVGlucose dehydrogenase (ubiquinone-8 as acceptor) (periplasm)
p2059
F0.9823718127269806
sVChorismate synthase
p2060
F0.0
sVL-Prolinylglycine (Pro-Gly) transport via ABC system (periplasm)
p2061
F0.9823718127269673
sVPhosphatidylglycerol transport via ABC system (n-C14:1, periplasm)
p2062
F0.9823718127269889
sVN-acetyl-D-galactosamine transport via diffusion (extracellular to periplasm)
p2063
F0.982371812726976
sVPotassium transport out via proton antiport (periplasm)
p2064
F0.9823718127269806
sV2-acyl-glycerophospho-ethanolamine acyltransferase (n-C14:1)
p2065
F0.9823718127269803
sVMolybdate transport via diffusion (extracellular to periplasm)
p2066
F0.0
sVFerric 2,3-dihydroxybenzoylserine exchange
p2067
F0.9823718127452477
sVHydrogen sulfide oxidation
p2068
F0.9823718127269764
sVCardiolipin hydrolase (periplasm, n-C16:1)
p2069
F0.982371812726979
sV2-Dehydro-L-gulonate reductase to gluconate (NADPH)
p2070
F0.9823718127269803
sVMurein lytic transglycosylase (murein4p4p) (periplasm)
p2071
F0.9823718127269826
sVPyridoxal kinase
p2072
F0.9823718127269796
sVMurein D,D-carboxypeptidase (murein5p4p) (periplasm)
p2073
F0.98237181272698
sV5'-nucleotidase (XMP)
p2074
F0.9823718127269777
sVBiotin sulfoxide reductase
p2075
F0.9823718127269825
sVZinc (Zn+2) transport out via proton antiport (periplasm)
p2076
F0.9823718127269766
sVValine-pyruvate aminotransferase
p2077
F0.9823718127269766
sV3-hydroxyacyl-CoA dehydratase (3-hydroxyoctadecanoyl-CoA)
p2078
F0.9823718127269719
sVMethylglyoxal synthase
p2079
F0.9823718127269826
sVE. coli biomass objective function (iJO1366) - WT - with 53.95 GAM estimate
p2080
F0.982371812726981
sVCoprogen unloaded secretion
p2081
F0.9823718127269837
sVGuanosine transport via diffusion (extracellular to periplasm)
p2082
F0.9823718127269803
sV2-acyl-glycerophospho-ethanolamine acyltransferase (n-C16:1)
p2083
F0.9823718127269803
sVNMN transport via NMN glycohydrolase (periplasm)
p2084
F0.9823718127269808
sVPsicoselysine transport via proton symport (periplasm)
p2085
F0.9823718127269665
sVTungsten pterin cofactor synthase
p2086
F0.9823718127269766
sV3-oxoacyl-[acyl-carrier-protein] synthase (n-C14:1)
p2087
F0.9823718127269759
sVAdenylate cyclase
p2088
F0.9823718127269793
sVD-serine dehydrogenase
p2089
F0.9823718127269767
sVFumarate exchange
p2090
F0.9823718127452477
sVL-galactonate oxidoreductase
p2091
F0.9823718127269782
sVN-Acetyl-D-glucosamine(anhydrous)N-Acetylmuramic acid exchange
p2092
F0.9823718127269738
sV2-acyl-glycerophospho-ethanolamine acyltransferase (n-C18:1)
p2093
F0.9823718127269803
sVSirohydrochlorin ferrochelatase
p2094
F0.0
sVH2 exchange
p2095
F0.9823718127270838
sVD-galactose 1-phosphate transport via diffusion (extracellular to periplasm)
p2096
F0.9823718127269782
sVD-glycero-D-manno-hepose 1-phosphate adenyltransferase
p2097
F0.9823718127269792
sVCDP-diacylglycerol synthetase (n-C18:0)
p2098
F0.9823718127269816
sVCytidylate kinase (CMP)
p2099
F0.9801654661872681
sVSuccinate dehydrogenase (irreversible)
p2100
F0.9566911236138146
sV3-oxoacyl-[acyl-carrier-protein] synthase (n-C12:0)
p2101
F0.982371812726975
sV3-oxoacyl-[acyl-carrier-protein] reductase (n-C10:0)
p2102
F0.9823718127269803
sVGlucose 6-phosphate dehydrogenase
p2103
F0.9755115436722552
sVHomoserine kinase
p2104
F0.0
sVL-Lysine exchange
p2105
F0.9823718127269807
sVD-Allose exchange
p2106
F0.9823718127269738
sVChloramphenicol transport via diffusion (extracellular to periplasm)
p2107
F0.9823718127269785
sVM-diaminopimelic acid ABC transport (periplasm)
p2108
F0.9823718127269819
sV3-oxoacyl-[acyl-carrier-protein] reductase (n-C12:0)
p2109
F0.9823718127269803
sVHydroxymethylpyrimidine kinase (ATP)
p2110
F0.9823718127269758
sVL-Ascorbate exchange
p2111
F0.9823718127269738
sVPyruvate synthase
p2112
F0.9822610436172091
sVMinocycline exchange
p2113
F0.9823718127269727
sVSpermidine synthase
p2114
F0.9823718127269723
sVPhospho-L-threonine transport via diffusion (extracellular to periplasm)
p2115
F0.9823718127269758
sVGlucarate dehydratase
p2116
F0.9823718127269806
sVRibonucleoside-diphosphate reductase (CDP)
p2117
F0.9823718127269824
sV3-oxoacyl-[acyl-carrier-protein] synthase (n-C18:1)
p2118
F0.9823718127269759
sVN-acetyl-D-glucosamine 1-phosphatase (periplasm)
p2119
F0.982371812726976
sVTetradecenoate (n-C14:1) exchange
p2120
F0.9823718127269764
sVAdenine transport via proton symport (reversible) (periplasm)
p2121
F0.9823718127269797
sVFatty-acid-CoA ligase (decanoate transport via vectoral Co-A coupling)
p2122
F0.9823718127269873
sVL-alanyl-L-glutamate transport via diffusion (extracellular to periplasm)
p2123
F0.9823718127269813
sVPhosphate acetyltransferase
p2124
F0.9823718127269796
sVL-cysteine uptake via ABC system (periplasm)
p2125
F0.9823718127269782
sVNicotinamide-nucleotide adenylyltransferase
p2126
F0.9823718127269808
sV2-succinyl-6-hydroxy-2,4-cyclohexadiene 1-carboxylate synthase
p2127
F0.9823718127269755
sVPhospholipase A1 (phosphatidate, n-C14:1) (periplasm)
p2128
F0.9823718127269816
sVL-Arginine exchange
p2129
F0.9823718127269738
sVLysophospholipase L2 (2-acylglycerophosphoglycerol, n-C12:0)
p2130
F0.9823718127269809
sVNucleoside-diphosphate kinase (ATP:UDP)
p2131
F3.5640507678224185e-16
sVSulfoacetate transport via ABC system (periplasm)
p2132
F0.9823718127269722
sVL-Lactate dehydrogenase (menaquinone)
p2133
F0.9823718127269813
sVPutrescine/ornithine antiporter (periplasm)
p2134
F0.9823718127269796
sVArabinose modified core oligosaccharide lipid A transport via ABC system (periplasm to extracellular)
p2135
F0.9823718127269775
sVFatty-acid-CoA thioesterase (dodecanoate)
p2136
F0.9819756015133153
sVO-succinylbenzoate-CoA synthase
p2137
F0.9823718127269723
sVL-Lactaldehyde:NADP+ 1-oxidoreductase
p2138
F0.9823718127269813
sVOrnithine transport via ABC system (periplasm)
p2139
F0.982371812726982
sVUMP kinase
p2140
F-3.42750897419293e-16
sVAminoacetone:oxygen oxidoreductase(deaminating)(flavin-containing)
p2141
F0.9823718127269764
sVCys-Gly exchange
p2142
F0.9823718127269743
sVMalonic semialdehyde reductase
p2143
F0.9823718127249221
sVDATP amine hydrolysis (spontaneous)
p2144
F0.9823718127269816
sVMannose 6-phosphate phosphatase
p2145
F0.9823718127269826
sVTungstate transport via ABC system (periplasm)
p2146
F0.9823718127269826
sV(R)-Glycerate exchange
p2147
F0.9823718127276349
sVGlutaminyl-tRNA synthetase
p2148
F0.9823718127269783
sVLysophospholipase L1 (2-acylglycerophosphoglycerol, n-C16:0) (periplasm)
p2149
F0.9823718127269809
sVMalate transport via diffusion (extracellular to periplasm)
p2150
F0.9823718127269785
sV4-Aminobutanoate exchange
p2151
F0.9823718127269738
sV3-oxo-5,6-dehydrosuberyl-CoA thiolase
p2152
F0.9823718127269748
sVPyrimidine oxygenase
p2153
F0.9823718127269754
sVMurein L,D-carboxypeptidase (murein5px3p) (periplasm)
p2154
F0.9823718127269826
sVGalactofuranosyltransferase (LPS O16 antigen biosynthesis)
p2155
F0.9823718127269777
sVMolybdate transport via ABC system (periplasm)
p2156
F0.0
sVHypoxanthine transport (periplasm)
p2157
F0.982371812727309
sVGlutamate-5-semialdehyde dehydrogenase
p2158
F0.981471940736084
sVCrotonobetaine-CoA Ligase
p2159
F0.9823718127269765
sVMolybdopterin cytidine dinucleotide synthase
p2160
F0.9823718127269786
sVFatty-acid-CoA thioesterase (tetradecanoate)
p2161
F0.9823718127269873
sVSulfate transport in via proton symport (periplasm to cytoplasm)
p2162
F0.9816016874721858
sVCholine exchange
p2163
F0.9823718127269743
sVButyrate transport via diffusion (extracellular to periplasm)
p2164
F0.9823718127269773
sV2-oxoglutarate reversible transport via symport (periplasm)
p2165
F0.9823718127269783
sVL-Phenylalanine exchange
p2166
F0.9823718127269746
sVISC Cysteine desulfuration
p2167
F-1.9061219628788763e-17
sVHomoserine O-succinyltransferase
p2168
F0.0
sVIsocitrate dehydrogenase (NADP)
p2169
F-4.804193541367653e-16
sVL-glutamine transport via ABC system (periplasm)
p2170
F0.9823718127269783
sVUridine hydrolase
p2171
F0.982371812726977
sVD-Glucose 6-phosphate exchange
p2172
F0.9823718127452477
sVHypoxanthine dehydrogenase
p2173
F0.982371812727309
sVMurein L,D-carboxypeptidase (murein5p5p) (periplasm)
p2174
F0.9823718127269826
sVL-leucine transport via ABC system (periplasm)
p2175
F0.9823718127269806
sVButanesulfonate transport via diffusion (extracellular to periplasm)
p2176
F0.9823718127269773
sVMurein D,D-carboxypeptidase (murein5px4px4p) (periplasm)
p2177
F0.98237181272698
sVLysophospholipase L1 (2-acylglycerophosphoethanolamine, n-C18:1) (periplasm)
p2178
F0.9823718127269809
sVRibonucleoside-triphosphate reductase (ATP) (flavodoxin)
p2179
F0.9823451598583299
sVO2 transport via diffusion (periplasm)
p2180
F0.24150155709710944
sVPhospholipase A2 (phosphatidylethanolamine, n-C12:0) (periplasm)
p2181
F0.9823718127269816
sVN-acetylmannosamine 6-phosphate epimerase
p2182
F0.9823718127269725
sVAmylomaltase (maltotriose)
p2183
F0.9823718127269725
sVHydroxybenzoate octaprenyltransferase
p2184
F-1.0934052222264392e-16
sVSelenite exchange
p2185
F0.9823718127269758
sVEnoylpimeloyl-[ACP] methyl ester reductase
p2186
F0.0
sVMaltohexaose transport via diffusion (extracellular to periplasm) irreversible
p2187
F0.9823718127269785
sVDGMP transport via diffusion (extracellular to periplasm)
p2188
F0.9823718127349288
sVRibonucleoside-diphosphate reductase (GDP) (glutaredoxin)
p2189
F0.9823718127269824
sVGlucosyltransferase I (LPS core synthesis)
p2190
F0.9823718127269806
sVGlycero-3-phosphocholine transport via diffusion (extracellular to periplasm)
p2191
F0.9823718127269713
sVCDP-diacylglycerol synthetase (n-C12:0)
p2192
F0.9823718127269819
sVPhosphatidylserine decarboxylase (n-C18:1)
p2193
F0.982371812726977
sVAnhydrous-N-Acetylmuramyl-tripeptide amidase
p2194
F0.9823718127269725
sVAdenosine kinase
p2195
F0.9823718127269797
sV(O16 antigen)x4 core oligosaccharide lipid A exchange
p2196
F0.9823718127269775
sV1,2 diacylglycerol transport via flipping (periplasm to cytoplasm, n-C16:1)
p2197
F0.9823718127269803
sVUDP-N-acetyl-D-mannosaminuronic acid transferase
p2198
F0.9823718127269774
sVSpermidine transport via ABC system (periplasm)
p2199
F0.9823718127269723
sVL-2-amino-3-oxobutanoate decarboxylation (spontaneous)
p2200
F0.9823718127269733
sVD-Glucosamine 6-phosphate exchange
p2201
F0.9823718127452477
sVN-Acetyl-D-galactosamine 1-phosphate exchange
p2202
F0.9823718127269738
sVL-Lyxose exchange
p2203
F0.9823718127269807
sVMurein D,D-endopeptidase (murein3px4p) (periplasm)
p2204
F0.98237181272698
sVPhosphatidate phosphatase (n-C16:1)
p2205
F0.9823718127269696
sVSelenite transport via diffusion (extracellular to periplasm)
p2206
F0.9823718127270209
sVGlycine transport via diffusion (extracellular to periplasm)
p2207
F0.9823718127269792
sVL-asparagine transport via ABC system (periplasm)
p2208
F0.9823718127269726
sVGlycerol-3-phosphate acyltransferase (C18:0)
p2209
F0.9823718127269713
sVPhenylacetate-CoA ligase
p2210
F0.9823718127269768
sVLysophospholipase L2 (acyltransferase, 2-acyl-glycerophosphoglycerol, n-C18:1)
p2211
F0.9823718127269809
sVBeta-ketoacyl-ACP synthase (2)
p2212
F0.9823718127269733
sVCardiolipin hydrolase (periplasm, n-C14:0)
p2213
F0.982371812726979
sVSulfite exchange
p2214
F0.9823718127269758
sVUroporphyrinogen-III synthase
p2215
F0.0
sVNa+/Acetate symport (periplasm)
p2216
F0.9823718127269793
sVNAD kinase
p2217
F0.0
sVFatty-acid-CoA ligase (octadecenoate transport via vectoral Co-A coupling)
p2218
F0.9823718127269873
sVUDPgalactose exchange
p2219
F0.9823718127269764
sVSO2 transport via diffusion (periplasm)
p2220
F0.9823718127270209
sV3-oxoacyl-[acyl-carrier-protein] reductase (n-C4:0)
p2221
F0.982371812726975
sVDihydroneopterin monophosphate dephosphorylase
p2222
F0.0
sV1-pyrroline-5-carboxylate dehydrogenase
p2223
F0.9823718127269748
sVPhosphomethylpyrimidine kinase
p2224
F5.377477752866701e-17
sV3-hydroxyacyl-[acyl-carrier-protein] dehydratase (n-C14:1)
p2225
F0.9823718127269803
sVGluconokinase
p2226
F0.9823718127269799
sVInositol transport via diffusion (extracellular to periplasm)
p2227
F0.9823718127269814
sVMeso-2,6-Diaminoheptanedioate exchange
p2228
F0.9823718127269738
sVGamma-butyrobetaine transport via diffusion (extracellular to periplasm)
p2229
F0.9823718127271976
sVArbutin 6-phosphate glucohydrolase
p2230
F0.9823718127269764
sVL-cysteine sulfinic acid desulfurase
p2231
F0.9823718127269782
sVIron (Fe+2) transport out via proton antiport (periplasm)
p2232
F0.9823718127269746
sV2-acyl-glycerophospho-ethanolamine acyltransferase (n-C14:0)
p2233
F0.9823718127269803
sVChorismate pyruvate lyase
p2234
F0.0
sVMalonyl-CoA-ACP transacylase
p2235
F-2.406063750602483e-14
sVCardiolipin hydrolase (periplasm, n-C16:0)
p2236
F0.982371812726979
sVPhospholipase A2 (phosphatidylethanolamine, n-C18:1) (periplasm)
p2237
F0.9823718127269816
sVDeoxyadenylate kinase
p2238
F0.9823718127269802
sVTartrate/succinate antiporter (periplasm)
p2239
F0.9823718127269722
sVAcetyl-CoA C-acyltransferase (octanoyl-CoA) (r)
p2240
F0.975956491830747
sVSelenate glutathione reductase III
p2241
F0.9823718127269767
sVSUF [2Fe-2S] Synthesis
p2242
F0.9823718127269767
sVGlucosyltransferase II (LPS core synthesis)
p2243
F0.9823718127269806
sVUDP-N-acetylmuramoyl-L-alanyl-D-gamma-glutamyl-meso-2,6-diaminopimelate-D-alanine L,D-carboxypeptidase
p2244
F0.9823718127269766
sVPhosphopantothenoylcysteine decarboxylase
p2245
F1.9772775474056256e-12
sVDUMP exchange
p2246
F0.9823718127452477
sVAdenylyl-sulfate kinase
p2247
F-9.493087090777456e-15
sVThymidine transport in via proton symport (periplasm)
p2248
F0.982371812726977
sVRibose-5-phosphate isomerase
p2249
F0.33443824529627214
sVL-Fucose exchange
p2250
F0.9823718127452477
sVPyridoxine kinase
p2251
F0.9823718127269796
sV4,5-dihydroxy-2,3-pentanedione cyclization (spontaneous)
p2252
F2.005169391263538e-13
sVL-aspartate oxidase
p2253
F0.9823648514277411
sVNAD diphosphatase
p2254
F0.9823718127249216
sV2-Oxoglutarate exchange
p2255
F0.9823718127269738
sVTetracycline exchange
p2256
F0.9823718127269764
sVSelenate glutathione reductase
p2257
F0.9823718127269767
sVD-lactate transport via diffusion (extracellular to periplasm)
p2258
F0.9823718127269802
sV5-Methylthio-D-ribose exchange
p2259
F0.9823718127269738
sV2-acyl-glycerophospho-ethanolamine acyltransferase (n-C16:0)
p2260
F0.9823718127269803
sVLysophospholipase L2 (acyltransferase, 2-acyl-glycerophosphoglycerol, n-C14:1)
p2261
F0.9823718127269809
sV3'-nucleotidase (CMP) (periplasm)
p2262
F0.9823718127269803
sV2-acyl-glycerophospho-ethanolamine acyltransferase (n-C18:0)
p2263
F0.9823718127269803
sV1,2 diacylglycerol transport via flipping (periplasm to cytoplasm, n-C14:1)
p2264
F0.9823718127269803
sVPhosphatidylserine decarboxylase (n-C16:1)
p2265
F0.0
sVGamma-glutamyl-gamma-aminobutyric acid hydrolase
p2266
F0.9823718127269813
sVNADPH Quinone Reductase (Ubiquinone-8)
p2267
F0.9823718127269851
sVD-Glucose exchange
p2268
F-0.023941061423765876
sVCDP-diacylglycerol synthetase (n-C18:1)
p2269
F0.9823718127269816
sVD-alanine-D-alanine dipeptidase
p2270
F0.9823718127269783
sVGlycerol-3-phosphate acyltransferase (C16:1)
p2271
F0.9823718127269713
sVPhosphatidate phosphatase (n-C18:0)
p2272
F0.9823718127269696
sVLysophospholipase L2 (2-acylglycerophosphoglycerol, n-C18:1)
p2273
F0.9823718127269809
sVUrea exchange
p2274
F0.9823718127269764
sVGlutathionylspermidine amidase
p2275
F0.9823718127269803
sVIron-sulfur cluster damage (nitrous oxide, spontaneous)
p2276
F0.9823718127269746
sVIMP dehydrogenase
p2277
F0.9813797853595644
sVNicotinate-nucleotide dimethylbenzimidazole phosphoribosyltransferase
p2278
F0.9823718127269093
sVCDP-diacylglycerol synthetase (n-C14:0)
p2279
F0.9823718127269819
sV3-oxoacyl-[acyl-carrier-protein] synthase (n-C12:1)
p2280
F0.982371812726975
sVL-methionine transport via ABC system (periplasm)
p2281
F0.982371812726979
sVPhosphatidylglycerol phosphate phosphatase (periplasm, n-C18:0)
p2282
F0.9823718127269796
sVAMP nucleosidase
p2283
F0.9823718127269774
sVDsbA protein reoxidation reaction (aerobic)
p2284
F0.9823718127269767
sVAgmatine exchange
p2285
F0.9823718127269738
sVL-arginine transport out via proton antiport (cytoplasm to periplasm)
p2286
F0.982371812726983
sVLysophospholipase L2 (2-acylglycerophosphoglycerol, n-C14:0)
p2287
F0.9823718127269809
sVL-ribulose-phosphate 4-epimerase
p2288
F0.9823718127269822
sVCardiolipin synthase (periplasmic, n-C14:1)
p2289
F0.982371812726979
sVAlpha,alpha-trehalase (periplasm)
p2290
F0.9823718127269826
sV2-hydroxy-6-ketononotrienedioate hydrolase
p2291
F0.9823718127269758
sVHeptosyltransferase II (LPS core synthesis)
p2292
F0.9823718127269775
sVAcetyl-CoA acyltransferase (hexadecanoyl-CoA), (r)
p2293
F0.9823718127269766
sVD(-)-tartrate dehydratase
p2294
F0.9823718127269767
sVL-allo-threonine dehydrogenase
p2295
F0.9823718127269682
sVCold adapted KDO(2)-lipid (A) exchange
p2296
F0.9823718127269807
sVL-xylulokinase
p2297
F0.9823718127269766
sVCarnitine-CoA Ligase
p2298
F0.9823718127269816
sVNucleoside-triphosphatase (ATP)
p2299
F0.9823718127269777
sV1,2 diacylglycerol transport via flipping (periplasm to cytoplasm, n-C18:1)
p2300
F0.9823718127269803
sVMurein L,D-endopeptidase (murein3px3p) (periplasm)
p2301
F0.9823718127269826
sVGMP transport via diffusion (extracellular to periplasm)
p2302
F0.9823718127269797
sV2-Acyl-sn-glycero-3-phosphoglycerol (n-C16:0) transporter via facilitated diffusion (periplasm)
p2303
F0.9823718127269803
sVD-galactarte transport via proton symport, reversible (periplasm)
p2304
F0.9823718127269782
sVGlycogen phosphorylase
p2305
F0.9823718127269806
sV2,3-diaminopropionate amonnia lyase
p2306
F0.9823718127269802
sV1-hexadec-7-enoyl-sn-glycerol 3-phosphate O-acyltransferase (n-C16:1)
p2307
F2.2627922535365773e-16
sVPhenylalanine transaminase
p2308
F0.0
sVD-carnitine outward transport (H+ antiport)
p2309
F0.9823718127269816
sVFructoselysine Kinase
p2310
F0.9823718127269746
sVL-arabinose transport via diffusion (extracellular to periplasm)
p2311
F0.982371812726983
sV5'-nucleotidase (AMP)
p2312
F0.9823718127269777
sVFerrichrome transport via ton system (extracellular)
p2313
F0.9823718127269746
sVDeoxycytidine transport via diffusion (extracellular to periplasm)
p2314
F0.9823718127336012
sVDTDP-4-dehydrorhamnose reductase
p2315
F0.9823718127269722
sVCarbamate kinase
p2316
F0.9772921102938704
sVPhosphatidylglycerol phosphate phosphatase (periplasm, n-C18:1)
p2317
F0.9823718127269796
sVZinc (Zn+2) transport via ABC system (periplasm)
p2318
F0.9823718127269766
sVCardiolipin synthase (periplasmic, n-C16:1)
p2319
F0.982371812726979
sVHistidinol dehydrogenase
p2320
F4.991606303541029e-16
sVFumarate dependent DHORD
p2321
F0.9823718127269789
sVFMNH2-dependent monooxygenase (sulfoacetate)
p2322
F0.9823718127269746
sVGlycerol-3-phosphate acyltransferase (C12:0)
p2323
F0.9823718127269713
sVAdentylate kinase (ITP)
p2324
F0.9823718127269793
sVISC [4Fe-4S] Transfer
p2325
F0.9823696939720034
sVThiamine kinase
p2326
F0.982371812726978
sVPhosphatidylglycerophosphate transport via ABC system (n-C16:0, periplasm)
p2327
F0.9823718127269796
sVGlycerophosphoserine exchange
p2328
F0.9823718127452477
sVNickel transport via diffusion (extracellular to periplasm)
p2329
F0.0
sVUDP-N-acetyl-D-glucosamine pyrophosphohydrolase (periplasm)
p2330
F0.9823718127269799
sV4-Hydroxyphenylacetaldehyde exchange
p2331
F0.9823718127269738
sVDeoxyguanosine transport via diffusion (extracellular to periplasm)
p2332
F0.9823718127349288
sVAMP exchange
p2333
F0.9823718127269738
sV2',3'-cyclic-nucleotide phosphodiesterase (AMP) (periplasm)
p2334
F0.9823718127269803
sVPyruvate exchange
p2335
F0.9823718127269758
sVNMN transport via diffusion (extracellular to periplasm)
p2336
F0.9823718127269808
sV3-oxoacyl-[acyl-carrier-protein] synthase (n-C16:0)
p2337
F0.9823718127269759
sVNitrite Reductase (NADH)
p2338
F0.9823718127269777
sVPyridoxal 5-phosphate phosphatase
p2339
F0.9823718127269796
sVThreonyl-tRNA synthetase
p2340
F0.9823718127269752
sVL-Cysteinylglycine transport via diffusion (extracellular to periplasm)
p2341
F0.9823718127269798
sVPhosphatidylglycerophosphate transport via ABC system (n-C12:0, periplasm)
p2342
F0.9823718127269796
sVUDP-N-acetyl-D-glucosamine exchange
p2343
F0.9823718127269764
sVPhosphatidylglycerophosphate transport via ABC system (n-C18:0, periplasm)
p2344
F0.9823718127269796
sVPhospholipase A2 (phosphatidylglycerol, n-C16:0) (periplasm)
p2345
F0.9823718127269816
sVSucrose exchange
p2346
F0.9823718127269764
sVNitrite exchange
p2347
F0.9823718127269775
sVGamma-glutamyl-gamma aminobutyric acid dehydrogenase
p2348
F0.9823718127269813
sVIsochorismate synthase
p2349
F0.9823718127269799
sVNAD nucleosidase
p2350
F0.9823718127269851
sVAlcohol dehydrogenase (ethanol)
p2351
F0.9823718127269725
sVPhosphatidylglycerol phosphate phosphatase (periplasm, n-C16:1)
p2352
F0.9823718127269796
sVNicotinate-nucleotide adenylyltransferase
p2353
F-1.3143157359336458e-12
sVCholine transport via diffusion (extracellular to periplasm)
p2354
F0.9823718127269798
sVDeoxyinosine transport in via proton symport (periplasm)
p2355
F0.9823718127269763
sVL-alanyl-D-glutamate transport via diffusion (extracellular to periplasm)
p2356
F0.9823718127269813
sVNMN nucleosidase
p2357
F0.9823718127269808
sVSuccinyl-diaminopimelate desuccinylase
p2358
F0.0
sVFumarase
p2359
F0.9027057627325165
sVInorganic triphosphatase
p2360
F0.982371812726978
sVDIMP transport via diffusion (extracellular to periplasm)
p2361
F0.9823718127269763
sV3-oxoacyl-[acyl-carrier-protein] synthase (n-C10:0)
p2362
F0.982371812726975
sVFatty-acid-CoA thioesterase (decanoate)
p2363
F0.9823718127269873
sVCadmium (+2) transport in via permease (no H+)
p2364
F0.9823718127269799
sVD-Glucosamine 6-phosphate transport via phosphate antiport (periplasm)
p2365
F0.9823718127269782
sVIron (III) transport via diffusion (extracellular to periplasm)
p2366
F0.9823718127269746
sVL-serine deaminase
p2367
F0.9823718127269755
sVPhosphoribosylpyrophosphate synthetase
p2368
F0.9823718127269665
sVNovobiocin exchange
p2369
F0.9823718127269775
sVMaltodextrin phosphorylase (maltopentaose)
p2370
F0.9823718127269826
sVPhosphoenolpyruvate carboxykinase
p2371
F0.9823718127268654
sVPhosphatidate transport via ABC system (n-C18:1, periplasm)
p2372
F0.9823718127269768
sVPhospholipase A2 (phosphatidate, n-C18:1) (periplasm)
p2373
F0.9823718127269816
sVPhosphatidate phosphatase (n-C16:0)
p2374
F0.9823718127269696
sVNADH:flavorubredoxin oxidoreductase
p2375
F0.982371812727596
sV1,2 diacylglycerol transport via flipping (periplasm to cytoplasm, n-C14:0)
p2376
F0.9823718127269803
sV(R)-Pantothenate exchange
p2377
F0.9823718127269758
sVLipoate transport via proton symport (periplasm)
p2378
F0.9823718127269806
sVPhosphoglycolate phosphatase
p2379
F0.9823718127269627
sVFe(III)hydroxamate unloaded secretion
p2380
F0.9823718127269746
sVIsochorismatase
p2381
F0.9823718127269799
sVNADP phosphatase
p2382
F0.9823718127269851
sVSirohydrochlorin dehydrogenase (NAD)
p2383
F0.0
sVPhosphoadenylyl-sulfate reductase (thioredoxin)
p2384
F0.982371812726969
sVO-Phospho-4-hydroxy-L-threonine:2-oxoglutarate aminotransferase
p2385
F0.0
sVMaltotetraose transport via ABC system (periplasm)
p2386
F0.9823718127269785
sVCardiolipin hydrolase (periplasm, n-C18:1)
p2387
F0.982371812726979
sVGMP exchange
p2388
F0.9823718127276349
sVAlanine transaminase
p2389
F0.9823718127269725
sVIMP cyclohydrolase
p2390
F1.774081988377488e-14
sVDTMP kinase
p2391
F0.0
sVMelibiose transport via diffusion (extracellular to periplasm)
p2392
F0.9823718127269794
sV23cUMP transport via diffusion (extracellular to periplasm)
p2393
F0.9823718127269803
sVPhosphatidate phosphatase (n-C14:0)
p2394
F0.9823718127269696
sVNucleoside triphosphate tripolyhydrolase
p2395
F0.9823718127269777
sVOrnithine Decarboxylase
p2396
F0.982371812726982
sVGTP transport via diffusion (extracellular to periplasm)
p2397
F0.9823718127254115
sVAdenosylmethionine-8-amino-7-oxononanoate transaminase
p2398
F0.0
sV5'-nucleotidase (dIMP) (periplasm)
p2399
F0.9823718127269777
sVNicotinamide-nucleotide amidase
p2400
F0.9823718127269808
sVPyridoxal import
p2401
F0.9823718127269796
sVPsicoselysine transporter via diffusion (extracellular)
p2402
F0.9823718127269665
sVNucleoside-triphosphatase (ITP)
p2403
F0.9823718127269777
sVAcetate-CoA ligase (ADP-forming)
p2404
F0.982371812726976
sVUDP-N-acetylmuramoyl-L-alanine synthetase
p2405
F1.0878285984656501e-30
sVAdenine deaminase
p2406
F0.9823718127269797
sVNa+/Proline-L symporter (periplasm)
p2407
F0.9823718127269673
sVGlycerol-3-phosphate acyltransferase (C14:1)
p2408
F0.9823718127269713
sVDihydropteroate synthase
p2409
F4.476465849700669e-16
sV1,2 diacylglycerol transport via flipping (periplasm to cytoplasm, n-C16:0)
p2410
F0.9823718127269803
sVUDPgalactose transport via diffusion (extracellular to periplasm)
p2411
F0.9823718127269807
sVAcetyl-CoA C-acyltransferase (decanoyl-CoA) (r)
p2412
F0.9776728488265772
sVL-tryptophan transport via diffusion (extracellular to periplasm)
p2413
F0.9823718127269826
sVD-tartrate transport via proton symport (3 H) (periplasm)
p2414
F0.9823718127269722
sV3-hydroxycinnamic acid exchange
p2415
F0.9823718127269738
sVH2O exchange
p2416
F0.4968653908744495
sVL-asparate transport via proton symport (3 H) (periplasm)
p2417
F0.9823718127269682
sV1,4-alpha-D-glucan transport via diffusion (extracellular to periplasm) irreversible
p2418
F0.9823718127269803
sVCMP transport via diffusion (extracellular to periplasm)
p2419
F0.9823718127269785
sVSuccinate:malate antiporter (periplasm)
p2420
F0.9823718127269722
sVUridine transport in via proton symport (periplasm)
p2421
F0.982371812726977
sVD-alanine transaminase
p2422
F0.9823718127269725
sV1,2 diacylglycerol transport via flipping (periplasm to cytoplasm, n-C18:0)
p2423
F0.9823718127269803
sVGlycogen debranching enzyme (bglycogen -> glycogen)
p2424
F0.9823718127269804
sVLysophospholipase L1 (2-acylglycerophosphotidate, n-C14:0) (periplasm)
p2425
F0.9823718127269809
sV3-mercaptopyruvate sulfurtransferase
p2426
F0.9823718127269733
sV3-hydroxyacyl-CoA dehydrogenase (acetoacetyl-CoA)
p2427
F0.9720365831108303
sVFructoselysine exchange
p2428
F0.9823718127452477
sV2-Oxogluterate dehydrogenase
p2429
F0.9777223396312744
sVGlcNAc-anhMurNAc tetrapeptide transport in via proton symport (periplasm)
p2430
F0.9823718127269785
sVIsoleucyl-tRNA synthetase
p2431
F0.9823718127269814
sV5'-nucleotidase (dIMP)
p2432
F0.9823718127269777
sVPhospholipase A1 (phosphatidylethanolamine, n-C12:0) (periplasm)
p2433
F0.9823718127269816
sVAminopropanol dehydrogenase reversible
p2434
F0.9823718127269832
sVPhenylacetaldehyde reversible transport via proton symport (periplasm)
p2435
F0.9823718127269768
sVUndecaprenyl-diphosphatase
p2436
F1.0878285984656501e-30
sVPurine-nucleoside phosphorylase (Adenosine)
p2437
F0.9823718127269796
sVXanthosine transport via proton symport (periplasm)
p2438
F0.9823718127269766
sV2-octaprenyl-6-methoxyphenol hydroxylase (anaerobic)
p2439
F0.9823718127269794
sVGlycerol-3-phosphate acyltransferase (C16:0)
p2440
F0.9823718127269713
sVGlycine betaine transport via proton symport (periplasm)
p2441
F0.9823718127269792
sVLysophospholipase L1 (2-acylglycerophosphotidate, n-C14:1) (periplasm)
p2442
F0.9823718127269809
sVFormaldehyde dehydrogenase
p2443
F0.9823718127269873
sVMurein D,D-endopeptidase (murein4px4px4p) (periplasm)
p2444
F0.98237181272698
sVD-Glyceraldehyde exchange
p2445
F0.9823718127276349
sVCDP-diacylglycerol synthetase (n-C14:1)
p2446
F0.9823718127269819
sVL-Alanine exchange
p2447
F0.9823718127269738
sVBeta-fructofuranosidase
p2448
F0.9823718127269746
sVFerroxamine transport via ton system (extracellular)
p2449
F0.9823718127269746
sVCardiolipin hydrolase (periplasm, n-C12:0)
p2450
F0.982371812726979
sVPyridoxine transport via diffusion (extracellular)
p2451
F0.9823718127269796
sVCitrate exchange
p2452
F0.9823718127269743
sVFormate exchange
p2453
F0.9823718127452477
sVMurein lytic transglycosylase (murein4px4p4p) (periplasm)
p2454
F0.9823718127269826
sVPhosphatidate phosphatase (periplasmic, n-C16:0)
p2455
F0.9823718127269696
sVLysophospholipase L2 (2-acylglycerophosphoglycerol, n-C14:1)
p2456
F0.9823718127269809
sVPropanal exchange
p2457
F0.9823718127269758
sVCardiolipin synthase (periplasmic, n-C14:0)
p2458
F0.982371812726979
sVFructose-6-phosphate transport via phosphate antiport (periplasm)
p2459
F0.9823718127269873
sVGlucosyltransferase III (LPS core synthesis)
p2460
F0.9823718127269806
sVL-alanine transport in via proton symport (periplasm)
p2461
F0.9823718127269725
sVNitrate transport via diffusion (extracellular to periplasm)
p2462
F0.9823718127269777
sVFructose 6-phosphate aldolase
p2463
F0.9823718127269873
sVCardiolipin synthase (periplasmic, n-C18:0)
p2464
F0.982371812726979
sVL-Histidine exchange
p2465
F0.9823718127269754
sVAlpha,alpha-trehalase
p2466
F0.9823718127269826
sVL-isoleucine transport via ABC system (periplasm)
p2467
F0.9823718127269814
sVUDP-N-acetylmuramate:L-alanyl-gamma-D-glutamyl-meso-diaminopimelate ligase
p2468
F0.9823718127269766
sVGuanine deaminase
p2469
F0.9823718127254115
sVValyl-tRNA synthetase
p2470
F0.9823718127269768
sVGuanine exchange
p2471
F0.9823718127276349
sVFerroxidase
p2472
F0.9823718127269746
sVBeta D-galactose transport via diffusion (extracellular to periplasm)
p2473
F0.9823718127269782
sVKetol-acid reductoisomerase (2,3-dihydroxy-3-methylbutanoate)
p2474
F-3.084209192629372e-16
sVGlycerol transport via diffusion (extracellular to periplasm)
p2475
F0.9823718127269792
sVPhosphoribosylaminoimidazolesuccinocarboxamide synthase
p2476
F3.6600668233267054e-15
sVCarbamoyl-phosphate synthase (glutamine-hydrolysing)
p2477
F0.9823718127269799
sVNitrite Reductase (Menaquinole-8, periplasm)
p2478
F0.9823718127269777
sVDihydroxyacetone exchange
p2479
F0.9823718127452477
sVPyruvate dehydrogenase
p2480
F0.9652674865422861
sVCitrate transport via succinate antiport (periplasm)
p2481
F0.982371812726979
sVD-glucuronate transport via proton symport, reversible (periplasm)
p2482
F0.9823718127269806
sVFatty-acid-CoA ligase (octadecanoate transport via vectoral Co-A coupling)
p2483
F0.9823718127269873
sVCardiolipin synthase (periplasmic, n-C16:0)
p2484
F0.982371812726979
sVFMN reductase
p2485
F0.9823718127269746
sV2,3-dehydroadipyl-CoA hydratase
p2486
F0.9823718127349288
sVL-alanine-D-glutamate exchange
p2487
F0.9823718127269738
sVCarnitine-CoA racemase
p2488
F0.9823718127269816
sVAcetyl-CoA C-acyltransferase (butanoyl-CoA) (r)
p2489
F0.9720365831108307
sV3-oxoacyl-[acyl-carrier-protein] reductase (n-C6:0)
p2490
F0.982371812726975
sVSUF [4Fe-4S] Transfer
p2491
F0.9823718127269767
sVMethanol transport via diffusion (extracellular to periplasm)
p2492
F-3.645213301392104e-16
sVGlyceraldehyde facilitated diffusion (periplasm)
p2493
F0.9823718127269792
sVNADPH Quinone Reductase (2-Demethylmenaquinone-8)
p2494
F0.9823718127269851
sVHexadecanoate (n-C16:0) exchange
p2495
F0.9823718127269754
sV2',3'-Cyclic UMP exchange
p2496
F0.9823718127269738
s.